

Microchip MPLAB XC8 Assembler V2.41 build 20230208172133 
                                                                                               Sun Jun 04 23:10:43 2023

Microchip MPLAB XC8 C Compiler v2.41 (Free license) build 20230208172133 Og1 
     1                           	processor	16F877A
     2                           	pagewidth 120
     3                           	opt	flic
     4                           	psect	strings,global,class=STRING,delta=2,noexec
     5                           	psect	cinit,global,class=CODE,merge=1,delta=2
     6                           	psect	bssBANK0,global,class=BANK0,space=1,delta=1,noexec
     7                           	psect	bssBANK1,global,class=BANK1,space=1,delta=1,noexec
     8                           	psect	clrtext,global,class=CODE,delta=2
     9                           	psect	cstackCOMMON,global,class=COMMON,space=1,delta=1,noexec
    10                           	psect	cstackBANK0,global,class=BANK0,space=1,delta=1,noexec
    11                           	psect	maintext,global,class=CODE,split=1,delta=2
    12                           	psect	text1,local,class=CODE,merge=1,delta=2
    13                           	psect	text2,local,class=CODE,merge=1,delta=2,group=1
    14                           	psect	text3,local,class=CODE,merge=1,delta=2,group=2
    15                           	psect	text4,local,class=CODE,merge=1,delta=2,group=2
    16                           	psect	text5,local,class=CODE,merge=1,delta=2
    17                           	psect	text6,local,class=CODE,merge=1,delta=2,group=3
    18                           	psect	text7,local,class=CODE,merge=1,delta=2
    19                           	psect	text8,local,class=CODE,merge=1,delta=2
    20                           	psect	text9,local,class=CODE,merge=1,delta=2
    21                           	psect	text10,local,class=CODE,merge=1,delta=2
    22                           	psect	text11,local,class=CODE,merge=1,delta=2
    23                           	psect	text12,local,class=CODE,merge=1,delta=2,group=2
    24                           	psect	text13,local,class=CODE,merge=1,delta=2,group=2
    25                           	psect	text14,local,class=CODE,merge=1,delta=2,group=2
    26                           	psect	text15,local,class=CODE,merge=1,delta=2
    27                           	psect	text16,local,class=CODE,merge=1,delta=2
    28                           	psect	intentry,global,class=CODE,delta=2
    29                           	psect	idloc,global,abs,ovrld,class=IDLOC,space=5,delta=2,noexec
    30                           	psect	config,global,abs,ovrld,class=CONFIG,space=4,delta=2,noexec
    31                           	dabs	1,0x7E,2
    32     0000                     
    33                           ; Generated 09/02/2023 GMT
    34                           ; 
    35                           ; Copyright © 2023, Microchip Technology Inc. and its subsidiaries ("Microchip")
    36                           ; All rights reserved.
    37                           ; 
    38                           ; This software is developed by Microchip Technology Inc. and its subsidiaries ("Microch
      +                          ip").
    39                           ; 
    40                           ; Redistribution and use in source and binary forms, with or without modification, are
    41                           ; permitted provided that the following conditions are met:
    42                           ; 
    43                           ;     1. Redistributions of source code must retain the above copyright notice, this lis
      +                          t of
    44                           ;        conditions and the following disclaimer.
    45                           ; 
    46                           ;     2. Redistributions in binary form must reproduce the above copyright notice, this 
      +                          list
    47                           ;        of conditions and the following disclaimer in the documentation and/or other
    48                           ;        materials provided with the distribution. Publication is not required when
    49                           ;        this file is used in an embedded application.
    50                           ; 
    51                           ;     3. Microchip's name may not be used to endorse or promote products derived from th
      +                          is
    52                           ;        software without specific prior written permission.
    53                           ; 
    54                           ; THIS SOFTWARE IS PROVIDED BY MICROCHIP "AS IS" AND ANY EXPRESS OR IMPLIED WARRANTIES,
    55                           ; INCLUDING, BUT NOT LIMITED TO, THE IMPLIED WARRANTIES OF MERCHANTABILITY AND FITNESS F
      +                          OR
    56                           ; PURPOSE ARE DISCLAIMED.  IN NO EVENT SHALL MICROCHIP BE LIABLE FOR ANY DIRECT, INDIREC
      +                          T,
    57                           ; INCIDENTAL, SPECIAL, EXEMPLARY, OR CONSEQUENTIAL DAMAGES (INCLUDING BUT NOT LIMITED TO
    58                           ; PROCUREMENT OF SUBSTITUTE GOODS OR SERVICES; LOSS OF USE, DATA OR PROFITS; OR BUSINESS
    59                           ; INTERRUPTION) HOWSOEVER CAUSED AND ON ANY THEORY OF LIABILITY, WHETHER IN CONTRACT, ST
      +                          RICT
    60                           ; LIABILITY, OR TORT (INCLUDING NEGLIGENCE OR OTHERWISE) ARISING IN ANY WAY OUT OF THE U
      +                          SE OF
    61                           ; THIS SOFTWARE, EVEN IF ADVISED OF THE POSSIBILITY OF SUCH DAMAGE.
    62                           ; 
    63                           ; 
    64                           ; Code-generator required, PIC16F877A Definitions
    65                           ; 
    66                           ; SFR Addresses
    67     0000                     	;# 
    68     0001                     	;# 
    69     0002                     	;# 
    70     0003                     	;# 
    71     0004                     	;# 
    72     0005                     	;# 
    73     0006                     	;# 
    74     0007                     	;# 
    75     0008                     	;# 
    76     0009                     	;# 
    77     000A                     	;# 
    78     000B                     	;# 
    79     000C                     	;# 
    80     000D                     	;# 
    81     000E                     	;# 
    82     000E                     	;# 
    83     000F                     	;# 
    84     0010                     	;# 
    85     0011                     	;# 
    86     0012                     	;# 
    87     0013                     	;# 
    88     0014                     	;# 
    89     0015                     	;# 
    90     0015                     	;# 
    91     0016                     	;# 
    92     0017                     	;# 
    93     0018                     	;# 
    94     0019                     	;# 
    95     001A                     	;# 
    96     001B                     	;# 
    97     001B                     	;# 
    98     001C                     	;# 
    99     001D                     	;# 
   100     001E                     	;# 
   101     001F                     	;# 
   102     0081                     	;# 
   103     0085                     	;# 
   104     0086                     	;# 
   105     0087                     	;# 
   106     0088                     	;# 
   107     0089                     	;# 
   108     008C                     	;# 
   109     008D                     	;# 
   110     008E                     	;# 
   111     0091                     	;# 
   112     0092                     	;# 
   113     0093                     	;# 
   114     0094                     	;# 
   115     0098                     	;# 
   116     0099                     	;# 
   117     009C                     	;# 
   118     009D                     	;# 
   119     009E                     	;# 
   120     009F                     	;# 
   121     010C                     	;# 
   122     010D                     	;# 
   123     010E                     	;# 
   124     010F                     	;# 
   125     018C                     	;# 
   126     018D                     	;# 
   127     0000                     	;# 
   128     0001                     	;# 
   129     0002                     	;# 
   130     0003                     	;# 
   131     0004                     	;# 
   132     0005                     	;# 
   133     0006                     	;# 
   134     0007                     	;# 
   135     0008                     	;# 
   136     0009                     	;# 
   137     000A                     	;# 
   138     000B                     	;# 
   139     000C                     	;# 
   140     000D                     	;# 
   141     000E                     	;# 
   142     000E                     	;# 
   143     000F                     	;# 
   144     0010                     	;# 
   145     0011                     	;# 
   146     0012                     	;# 
   147     0013                     	;# 
   148     0014                     	;# 
   149     0015                     	;# 
   150     0015                     	;# 
   151     0016                     	;# 
   152     0017                     	;# 
   153     0018                     	;# 
   154     0019                     	;# 
   155     001A                     	;# 
   156     001B                     	;# 
   157     001B                     	;# 
   158     001C                     	;# 
   159     001D                     	;# 
   160     001E                     	;# 
   161     001F                     	;# 
   162     0081                     	;# 
   163     0085                     	;# 
   164     0086                     	;# 
   165     0087                     	;# 
   166     0088                     	;# 
   167     0089                     	;# 
   168     008C                     	;# 
   169     008D                     	;# 
   170     008E                     	;# 
   171     0091                     	;# 
   172     0092                     	;# 
   173     0093                     	;# 
   174     0094                     	;# 
   175     0098                     	;# 
   176     0099                     	;# 
   177     009C                     	;# 
   178     009D                     	;# 
   179     009E                     	;# 
   180     009F                     	;# 
   181     010C                     	;# 
   182     010D                     	;# 
   183     010E                     	;# 
   184     010F                     	;# 
   185     018C                     	;# 
   186     018D                     	;# 
   187                           
   188                           	psect	strings
   189     0792                     __pstrings:
   190     0792                     stringtab:
   191     0792                     __stringtab:
   192                           
   193                           ;	String table - string pointers are 1 byte each
   194     0792  1BFF               	btfsc	btemp+1,7
   195     0793  2F9C               	ljmp	stringcode
   196     0794  1383               	bcf	3,7
   197     0795  187F               	btfsc	btemp+1,0
   198     0796  1783               	bsf	3,7
   199     0797  0800               	movf	0,w
   200     0798  0A84               	incf	4,f
   201     0799  1903               	skipnz
   202     079A  0AFF               	incf	btemp+1,f
   203     079B  0008               	return
   204     079C                     stringcode:
   205     079C                     stringdir:
   206     079C  3007               	movlw	high stringdir
   207     079D  008A               	movwf	10
   208     079E  0804               	movf	4,w
   209     079F  0A84               	incf	4,f
   210     07A0  0782               	addwf	2,f
   211     07A1                     __stringbase:
   212     07A1  3400               	retlw	0
   213     07A2                     __end_of__stringtab:
   214     07A2                     _dpowers:
   215     07A2  3401               	retlw	1
   216     07A3  3400               	retlw	0
   217     07A4  340A               	retlw	10
   218     07A5  3400               	retlw	0
   219     07A6  3464               	retlw	100
   220     07A7  3400               	retlw	0
   221     07A8  34E8               	retlw	232
   222     07A9  3403               	retlw	3
   223     07AA  3410               	retlw	16
   224     07AB  3427               	retlw	39
   225     07AC                     __end_of_dpowers:
   226     001E                     _ADRESH	set	30
   227     000C                     _PIR1bits	set	12
   228     0006                     _PORTBbits	set	6
   229     0006                     _PORTB	set	6
   230     001F                     _ADCON0	set	31
   231     000B                     _INTCONbits	set	11
   232     001F                     _ADCON0bits	set	31
   233     009E                     _ADRESL	set	158
   234     009F                     _ADCON1	set	159
   235     008C                     _PIE1bits	set	140
   236     0089                     _TRISE	set	137
   237     0085                     _TRISA	set	133
   238     0086                     _TRISB	set	134
   239     07AC                     STR_4:
   240     07AC  3420               	retlw	32	;' '
   241     07AD  3454               	retlw	84	;'T'
   242     07AE  3431               	retlw	49	;'1'
   243     07AF  3420               	retlw	32	;' '
   244     07B0  343D               	retlw	61	;'='
   245     07B1  3420               	retlw	32	;' '
   246     07B2  3400               	retlw	0
   247     07B3                     STR_3:
   248     07B3  3454               	retlw	84	;'T'
   249     07B4  3430               	retlw	48	;'0'
   250     07B5  3420               	retlw	32	;' '
   251     07B6  343D               	retlw	61	;'='
   252     07B7  3420               	retlw	32	;' '
   253     07B8  3400               	retlw	0
   254     07B9                     STR_6:
   255     07B9  3454               	retlw	84	;'T'
   256     07BA  3432               	retlw	50	;'2'
   257     07BB  3420               	retlw	32	;' '
   258     07BC  343D               	retlw	61	;'='
   259     07BD  3420               	retlw	32	;' '
   260     07BE  3400               	retlw	0
   261     07BF                     STR_7:
   262     07BF  3441               	retlw	65	;'A'
   263     07C0  344E               	retlw	78	;'N'
   264     07C1  3430               	retlw	48	;'0'
   265     07C2  3400               	retlw	0
   266     07C3                     STR_8:
   267     07C3  3441               	retlw	65	;'A'
   268     07C4  344E               	retlw	78	;'N'
   269     07C5  3431               	retlw	49	;'1'
   270     07C6  3400               	retlw	0
   271     07C7                     STR_9:
   272     07C7  3441               	retlw	65	;'A'
   273     07C8  344E               	retlw	78	;'N'
   274     07C9  3432               	retlw	50	;'2'
   275     07CA  3400               	retlw	0
   276     07CB                     STR_10:
   277     07CB  3441               	retlw	65	;'A'
   278     07CC  344E               	retlw	78	;'N'
   279     07CD  3433               	retlw	51	;'3'
   280     07CE  3400               	retlw	0
   281     07CF                     STR_11:
   282     07CF  3441               	retlw	65	;'A'
   283     07D0  344E               	retlw	78	;'N'
   284     07D1  3434               	retlw	52	;'4'
   285     07D2  3400               	retlw	0
   286     07D3                     STR_5:
   287     07D3  3441               	retlw	65	;'A'
   288     07D4  344E               	retlw	78	;'N'
   289     07D5  3435               	retlw	53	;'5'
   290     07D6  3400               	retlw	0
   291     07D7                     STR_1:
   292     07D7  3441               	retlw	65	;'A'
   293     07D8  344E               	retlw	78	;'N'
   294     07D9  3436               	retlw	54	;'6'
   295     07DA  3400               	retlw	0
   296     07DB                     STR_2:
   297     07DB  3441               	retlw	65	;'A'
   298     07DC  344E               	retlw	78	;'N'
   299     07DD  3437               	retlw	55	;'7'
   300     07DE  3400               	retlw	0
   301     07DF                     STR_15:
   302     07DF  3425               	retlw	37	;'%'
   303     07E0  3464               	retlw	100	;'d'
   304     07E1  3400               	retlw	0
   305     07D3                     
   306                           	psect	cinit
   307     0011                     start_initialization:	
   308                           ; #config settings
   309                           
   310     0011                     __initialization:
   311                           
   312                           ; Clear objects allocated to BANK0
   313     0011  1383               	bcf	3,7	;select IRP bank0
   314     0012  3058               	movlw	low __pbssBANK0
   315     0013  0084               	movwf	4
   316     0014  3070               	movlw	low (__pbssBANK0+24)
   317     0015  120A  158A  2690  120A  118A  	fcall	clear_ram0
   318                           
   319                           ; Clear objects allocated to BANK1
   320     001A  1683               	bsf	3,5	;RP0=1, select bank1
   321     001B  1303               	bcf	3,6	;RP1=0, select bank1
   322     001C  01A0               	clrf	__pbssBANK1& (0+127)
   323     001D  01A1               	clrf	(__pbssBANK1+1)& (0+127)
   324     001E  01A2               	clrf	(__pbssBANK1+2)& (0+127)
   325     001F  01A3               	clrf	(__pbssBANK1+3)& (0+127)
   326     0020                     end_of_initialization:	
   327                           ;End of C runtime variable initialization code
   328                           
   329     0020                     __end_of__initialization:
   330     0020  0183               	clrf	3
   331     0021  120A  118A  2BE6   	ljmp	_main	;jump to C main() function
   332                           
   333                           	psect	bssBANK0
   334     0058                     __pbssBANK0:
   335     0058                     _R2:
   336     0058                     	ds	2
   337     005A                     _in1:
   338     005A                     	ds	2
   339     005C                     _L1:
   340     005C                     	ds	2
   341     005E                     _R1:
   342     005E                     	ds	2
   343     0060                     _adc7:
   344     0060                     	ds	2
   345     0062                     _adc6:
   346     0062                     	ds	2
   347     0064                     _adc5:
   348     0064                     	ds	2
   349     0066                     _adc4:
   350     0066                     	ds	2
   351     0068                     _adc3:
   352     0068                     	ds	2
   353     006A                     _adc2:
   354     006A                     	ds	2
   355     006C                     _adc1:
   356     006C                     	ds	2
   357     006E                     _adc0:
   358     006E                     	ds	2
   359                           
   360                           	psect	bssBANK1
   361     00A0                     __pbssBANK1:
   362     00A0                     _in2:
   363     00A0                     	ds	2
   364     00A2                     _L2:
   365     00A2                     	ds	2
   366                           
   367                           	psect	clrtext
   368     0E90                     clear_ram0:	
   369                           ;	Called with FSR containing the base address, and
   370                           ;	W with the last address+1
   371                           
   372     0E90  0064               	clrwdt	;clear the watchdog before getting into this loop
   373     0E91                     clrloop0:
   374     0E91  0180               	clrf	0	;clear RAM location pointed to by FSR
   375     0E92  0A84               	incf	4,f	;increment pointer
   376     0E93  0604               	xorwf	4,w	;XOR with final address
   377     0E94  1903               	btfsc	3,2	;have we reached the end yet?
   378     0E95  3400               	retlw	0	;all done for this memory range, return
   379     0E96  0604               	xorwf	4,w	;XOR again to restore value
   380     0E97  2E91               	goto	clrloop0	;do the next byte
   381                           
   382                           	psect	cstackCOMMON
   383     0070                     __pcstackCOMMON:
   384     0070                     ?_int_Port:
   385     0070                     ?_int_ADC:	
   386                           ; 1 bytes @ 0x0
   387                           
   388     0070                     ?_lcd_init:	
   389                           ; 1 bytes @ 0x0
   390                           
   391     0070                     ?_lcd_cmd:	
   392                           ; 1 bytes @ 0x0
   393                           
   394     0070                     ?_main:	
   395                           ; 1 bytes @ 0x0
   396                           
   397     0070                     ?_lcd_data:	
   398                           ; 1 bytes @ 0x0
   399                           
   400     0070                     ?_adc_conv:	
   401                           ; 1 bytes @ 0x0
   402                           
   403     0070                     ??_adc_conv:	
   404                           ; 1 bytes @ 0x0
   405                           
   406                           
   407                           ; 1 bytes @ 0x0
   408     0070                     	ds	5
   409     0075                     _adc_conv$322:
   410                           
   411                           ; 1 bytes @ 0x5
   412     0075                     	ds	1
   413     0076                     _adc_conv$323:
   414                           
   415                           ; 1 bytes @ 0x6
   416     0076                     	ds	1
   417     0077                     _adc_conv$324:
   418                           
   419                           ; 1 bytes @ 0x7
   420     0077                     	ds	1
   421     0078                     _adc_conv$325:
   422                           
   423                           ; 1 bytes @ 0x8
   424     0078                     	ds	1
   425     0079                     _adc_conv$326:
   426                           
   427                           ; 1 bytes @ 0x9
   428     0079                     	ds	1
   429     007A                     _adc_conv$327:
   430                           
   431                           ; 1 bytes @ 0xA
   432     007A                     	ds	1
   433     007B                     _adc_conv$328:
   434                           
   435                           ; 1 bytes @ 0xB
   436     007B                     	ds	1
   437     007C                     _adc_conv$329:
   438                           
   439                           ; 1 bytes @ 0xC
   440     007C                     	ds	1
   441                           
   442                           	psect	cstackBANK0
   443     0020                     __pcstackBANK0:
   444     0020                     ??_int_Port:
   445     0020                     ??_int_ADC:	
   446                           ; 1 bytes @ 0x0
   447                           
   448     0020                     ??_lcd_cmd:	
   449                           ; 1 bytes @ 0x0
   450                           
   451     0020                     ??_lcd_data:	
   452                           ; 1 bytes @ 0x0
   453                           
   454     0020                     ?_ReadData_from:	
   455                           ; 1 bytes @ 0x0
   456                           
   457     0020                     ?_strlen:	
   458                           ; 2 bytes @ 0x0
   459                           
   460     0020                     ?___lwdiv:	
   461                           ; 2 bytes @ 0x0
   462                           
   463     0020                     ?___xxtofl:	
   464                           ; 2 bytes @ 0x0
   465                           
   466     0020                     ___lwdiv@divisor:	
   467                           ; 4 bytes @ 0x0
   468                           
   469     0020                     strlen@s:	
   470                           ; 2 bytes @ 0x0
   471                           
   472     0020                     ___xxtofl@val:	
   473                           ; 2 bytes @ 0x0
   474                           
   475                           
   476                           ; 4 bytes @ 0x0
   477     0020                     	ds	2
   478     0022                     ??_ReadData_from:
   479     0022                     ??_strlen:	
   480                           ; 1 bytes @ 0x2
   481                           
   482     0022                     lcd_cmd@cmd:	
   483                           ; 1 bytes @ 0x2
   484                           
   485     0022                     lcd_data@data:	
   486                           ; 1 bytes @ 0x2
   487                           
   488     0022                     ReadData_from@analog:	
   489                           ; 1 bytes @ 0x2
   490                           
   491     0022                     ___lwdiv@dividend:	
   492                           ; 2 bytes @ 0x2
   493                           
   494     0022                     strlen@cp:	
   495                           ; 2 bytes @ 0x2
   496                           
   497                           
   498                           ; 2 bytes @ 0x2
   499     0022                     	ds	1
   500     0023                     ??_lcd_init:
   501                           
   502                           ; 1 bytes @ 0x3
   503     0023                     	ds	1
   504     0024                     ?_lcd_caracter:
   505     0024                     ??___lwdiv:	
   506                           ; 1 bytes @ 0x4
   507                           
   508     0024                     ??___xxtofl:	
   509                           ; 1 bytes @ 0x4
   510                           
   511     0024                     ReadData_from@SLC:	
   512                           ; 1 bytes @ 0x4
   513                           
   514     0024                     lcd_caracter@str:	
   515                           ; 1 bytes @ 0x4
   516                           
   517     0024                     ___lwdiv@quotient:	
   518                           ; 2 bytes @ 0x4
   519                           
   520                           
   521                           ; 2 bytes @ 0x4
   522     0024                     	ds	2
   523     0026                     ??_lcd_caracter:
   524     0026                     lcd_caracter@num:	
   525                           ; 1 bytes @ 0x6
   526                           
   527     0026                     ___lwdiv@counter:	
   528                           ; 1 bytes @ 0x6
   529                           
   530                           
   531                           ; 1 bytes @ 0x6
   532     0026                     	ds	1
   533     0027                     ?___lwmod:
   534     0027                     lcd_caracter@i:	
   535                           ; 2 bytes @ 0x7
   536                           
   537     0027                     ___lwmod@divisor:	
   538                           ; 1 bytes @ 0x7
   539                           
   540                           
   541                           ; 2 bytes @ 0x7
   542     0027                     	ds	1
   543     0028                     ___xxtofl@sign:
   544                           
   545                           ; 1 bytes @ 0x8
   546     0028                     	ds	1
   547     0029                     ___xxtofl@exp:
   548     0029                     ___lwmod@dividend:	
   549                           ; 1 bytes @ 0x9
   550                           
   551                           
   552                           ; 2 bytes @ 0x9
   553     0029                     	ds	1
   554     002A                     ___xxtofl@arg:
   555                           
   556                           ; 4 bytes @ 0xA
   557     002A                     	ds	1
   558     002B                     ??___lwmod:
   559     002B                     ___lwmod@counter:	
   560                           ; 1 bytes @ 0xB
   561                           
   562                           
   563                           ; 1 bytes @ 0xB
   564     002B                     	ds	1
   565     002C                     ?_sprintf:
   566     002C                     sprintf@f:	
   567                           ; 2 bytes @ 0xC
   568                           
   569                           
   570                           ; 1 bytes @ 0xC
   571     002C                     	ds	2
   572     002E                     ?___fldiv:
   573     002E                     ___fldiv@a:	
   574                           ; 4 bytes @ 0xE
   575                           
   576                           
   577                           ; 4 bytes @ 0xE
   578     002E                     	ds	1
   579     002F                     ??_sprintf:
   580                           
   581                           ; 1 bytes @ 0xF
   582     002F                     	ds	3
   583     0032                     sprintf@ap:
   584     0032                     ___fldiv@b:	
   585                           ; 1 bytes @ 0x12
   586                           
   587                           
   588                           ; 4 bytes @ 0x12
   589     0032                     	ds	1
   590     0033                     sprintf@flag:
   591                           
   592                           ; 1 bytes @ 0x13
   593     0033                     	ds	1
   594     0034                     sprintf@prec:
   595                           
   596                           ; 1 bytes @ 0x14
   597     0034                     	ds	1
   598     0035                     sprintf@val:
   599                           
   600                           ; 2 bytes @ 0x15
   601     0035                     	ds	1
   602     0036                     ??___fldiv:
   603                           
   604                           ; 1 bytes @ 0x16
   605     0036                     	ds	1
   606     0037                     sprintf@sp:
   607                           
   608                           ; 1 bytes @ 0x17
   609     0037                     	ds	1
   610     0038                     sprintf@c:
   611                           
   612                           ; 1 bytes @ 0x18
   613     0038                     	ds	1
   614     0039                     ?_lcd_number:
   615     0039                     lcd_number@nb:	
   616                           ; 1 bytes @ 0x19
   617                           
   618                           
   619                           ; 2 bytes @ 0x19
   620     0039                     	ds	2
   621     003B                     ??_lcd_number:
   622     003B                     ___fldiv@rem:	
   623                           ; 1 bytes @ 0x1B
   624                           
   625     003B                     lcd_number@strNb:	
   626                           ; 4 bytes @ 0x1B
   627                           
   628                           
   629                           ; 10 bytes @ 0x1B
   630     003B                     	ds	4
   631     003F                     ___fldiv@sign:
   632                           
   633                           ; 1 bytes @ 0x1F
   634     003F                     	ds	1
   635     0040                     ___fldiv@new_exp:
   636                           
   637                           ; 2 bytes @ 0x20
   638     0040                     	ds	2
   639     0042                     ___fldiv@grs:
   640                           
   641                           ; 4 bytes @ 0x22
   642     0042                     	ds	4
   643     0046                     ___fldiv@bexp:
   644                           
   645                           ; 1 bytes @ 0x26
   646     0046                     	ds	1
   647     0047                     ___fldiv@aexp:
   648                           
   649                           ; 1 bytes @ 0x27
   650     0047                     	ds	1
   651     0048                     ?___fltol:
   652     0048                     ___fltol@f1:	
   653                           ; 4 bytes @ 0x28
   654                           
   655                           
   656                           ; 4 bytes @ 0x28
   657     0048                     	ds	4
   658     004C                     ??___fltol:
   659                           
   660                           ; 1 bytes @ 0x2C
   661     004C                     	ds	4
   662     0050                     ___fltol@sign1:
   663                           
   664                           ; 1 bytes @ 0x30
   665     0050                     	ds	1
   666     0051                     ___fltol@exp1:
   667                           
   668                           ; 1 bytes @ 0x31
   669     0051                     	ds	1
   670     0052                     ??_main:
   671     0052                     main@temp0:	
   672                           ; 1 bytes @ 0x32
   673                           
   674                           
   675                           ; 2 bytes @ 0x32
   676     0052                     	ds	2
   677     0054                     main@temp1:
   678                           
   679                           ; 2 bytes @ 0x34
   680     0054                     	ds	2
   681     0056                     main@temp2:
   682                           
   683                           ; 2 bytes @ 0x36
   684     0056                     	ds	2
   685                           
   686                           	psect	maintext
   687     03E6                     __pmaintext:	
   688 ;;
   689 ;;Main: autosize = 0, tempsize = 0, incstack = 0, save=0
   690 ;;
   691 ;; *************** function _main *****************
   692 ;; Defined at:
   693 ;;		line 40 in file "main.c"
   694 ;; Parameters:    Size  Location     Type
   695 ;;		None
   696 ;; Auto vars:     Size  Location     Type
   697 ;;  temp2           2   54[BANK0 ] int 
   698 ;;  temp1           2   52[BANK0 ] int 
   699 ;;  temp0           2   50[BANK0 ] int 
   700 ;;  temp4           2    0        int 
   701 ;;  temp3           2    0        int 
   702 ;; Return value:  Size  Location     Type
   703 ;;                  1    wreg      void 
   704 ;; Registers used:
   705 ;;		wreg, fsr0l, fsr0h, status,2, status,0, btemp+1, pclath, cstack
   706 ;; Tracked objects:
   707 ;;		On entry : B00/0
   708 ;;		On exit  : 0/0
   709 ;;		Unchanged: 0/0
   710 ;; Data sizes:     COMMON   BANK0   BANK1   BANK3   BANK2
   711 ;;      Params:         0       0       0       0       0
   712 ;;      Locals:         0       6       0       0       0
   713 ;;      Temps:          0       0       0       0       0
   714 ;;      Totals:         0       6       0       0       0
   715 ;;Total ram usage:        6 bytes
   716 ;; Hardware stack levels required when called: 5
   717 ;; This function calls:
   718 ;;		_ReadData_from
   719 ;;		___fldiv
   720 ;;		___fltol
   721 ;;		___xxtofl
   722 ;;		_int_ADC
   723 ;;		_int_Port
   724 ;;		_lcd_caracter
   725 ;;		_lcd_cmd
   726 ;;		_lcd_init
   727 ;;		_lcd_number
   728 ;; This function is called by:
   729 ;;		Startup code after reset
   730 ;; This function uses a non-reentrant model
   731 ;;
   732                           
   733     03E6                     _main:	
   734                           ;psect for function _main
   735                           
   736     03E6                     l1863:	
   737                           ;incstack = 0
   738                           ; Regs used in _main: [wreg-fsr0h+status,2+status,0+btemp+1+pclath+cstack]
   739                           
   740                           
   741                           ;main.c: 41: int temp0,temp1,temp2,temp3,temp4 ;;main.c: 42: int_Port();
   742     03E6  120A  158A  2688  120A  118A  	fcall	_int_Port
   743                           
   744                           ;main.c: 43: int_ADC();
   745     03EB  120A  158A  2698  120A  118A  	fcall	_int_ADC
   746                           
   747                           ;main.c: 44: lcd_init();
   748     03F0  120A  158A  26A6  120A  118A  	fcall	_lcd_init
   749     03F5                     l1865:
   750                           
   751                           ;main.c: 46: temp0 = ReadData_from("AN6");
   752     03F5  3036               	movlw	(low ((STR_1-__stringbase)| (0+32768)))& (0+255)
   753     03F6  120A  118A  2722  120A  118A  	fcall	_ReadData_from
   754     03FB  1283               	bcf	3,5	;RP0=0, select bank0
   755     03FC  1303               	bcf	3,6	;RP1=0, select bank0
   756     03FD  0821               	movf	?_ReadData_from+1,w
   757     03FE  00D3               	movwf	main@temp0+1
   758     03FF  0820               	movf	?_ReadData_from,w
   759     0400  00D2               	movwf	main@temp0
   760     0401                     l1867:
   761                           
   762                           ;main.c: 47: temp0 = (int)(temp0/2.046);
   763     0401  0852               	movf	main@temp0,w
   764     0402  00A0               	movwf	___xxtofl@val
   765     0403  0853               	movf	main@temp0+1,w
   766     0404  00A1               	movwf	___xxtofl@val+1
   767     0405  3000               	movlw	0
   768     0406  1BA1               	btfsc	___xxtofl@val+1,7
   769     0407  30FF               	movlw	255
   770     0408  00A2               	movwf	___xxtofl@val+2
   771     0409  00A3               	movwf	___xxtofl@val+3
   772     040A  3001               	movlw	1
   773     040B  120A  118A  25F0  120A  118A  	fcall	___xxtofl
   774     0410  1283               	bcf	3,5	;RP0=0, select bank0
   775     0411  1303               	bcf	3,6	;RP1=0, select bank0
   776     0412  0823               	movf	?___xxtofl+3,w
   777     0413  00B5               	movwf	___fldiv@b+3
   778     0414  0822               	movf	?___xxtofl+2,w
   779     0415  00B4               	movwf	___fldiv@b+2
   780     0416  0821               	movf	?___xxtofl+1,w
   781     0417  00B3               	movwf	___fldiv@b+1
   782     0418  0820               	movf	?___xxtofl,w
   783     0419  00B2               	movwf	___fldiv@b
   784     041A  3040               	movlw	64
   785     041B  00B1               	movwf	___fldiv@a+3
   786     041C  3002               	movlw	2
   787     041D  00B0               	movwf	___fldiv@a+2
   788     041E  30F1               	movlw	241
   789     041F  00AF               	movwf	___fldiv@a+1
   790     0420  30AA               	movlw	170
   791     0421  00AE               	movwf	___fldiv@a
   792     0422  120A  118A  2217  120A  118A  	fcall	___fldiv
   793     0427  1283               	bcf	3,5	;RP0=0, select bank0
   794     0428  1303               	bcf	3,6	;RP1=0, select bank0
   795     0429  0831               	movf	?___fldiv+3,w
   796     042A  00CB               	movwf	___fltol@f1+3
   797     042B  0830               	movf	?___fldiv+2,w
   798     042C  00CA               	movwf	___fltol@f1+2
   799     042D  082F               	movf	?___fldiv+1,w
   800     042E  00C9               	movwf	___fltol@f1+1
   801     042F  082E               	movf	?___fldiv,w
   802     0430  00C8               	movwf	___fltol@f1
   803     0431  120A  118A  26AA  120A  118A  	fcall	___fltol
   804     0436  1283               	bcf	3,5	;RP0=0, select bank0
   805     0437  1303               	bcf	3,6	;RP1=0, select bank0
   806     0438  0849               	movf	?___fltol+1,w
   807     0439  00D3               	movwf	main@temp0+1
   808     043A  0848               	movf	?___fltol,w
   809     043B  00D2               	movwf	main@temp0
   810     043C                     l1869:
   811                           
   812                           ;main.c: 49: temp1 = ReadData_from("AN7");
   813     043C  303A               	movlw	(low ((STR_2-__stringbase)| (0+32768)))& (0+255)
   814     043D  120A  118A  2722  120A  118A  	fcall	_ReadData_from
   815     0442  1283               	bcf	3,5	;RP0=0, select bank0
   816     0443  1303               	bcf	3,6	;RP1=0, select bank0
   817     0444  0821               	movf	?_ReadData_from+1,w
   818     0445  00D5               	movwf	main@temp1+1
   819     0446  0820               	movf	?_ReadData_from,w
   820     0447  00D4               	movwf	main@temp1
   821     0448                     l1871:
   822                           
   823                           ;main.c: 50: temp1 = (int)(temp1/2.046);
   824     0448  0854               	movf	main@temp1,w
   825     0449  00A0               	movwf	___xxtofl@val
   826     044A  0855               	movf	main@temp1+1,w
   827     044B  00A1               	movwf	___xxtofl@val+1
   828     044C  3000               	movlw	0
   829     044D  1BA1               	btfsc	___xxtofl@val+1,7
   830     044E  30FF               	movlw	255
   831     044F  00A2               	movwf	___xxtofl@val+2
   832     0450  00A3               	movwf	___xxtofl@val+3
   833     0451  3001               	movlw	1
   834     0452  120A  118A  25F0  120A  118A  	fcall	___xxtofl
   835     0457  1283               	bcf	3,5	;RP0=0, select bank0
   836     0458  1303               	bcf	3,6	;RP1=0, select bank0
   837     0459  0823               	movf	?___xxtofl+3,w
   838     045A  00B5               	movwf	___fldiv@b+3
   839     045B  0822               	movf	?___xxtofl+2,w
   840     045C  00B4               	movwf	___fldiv@b+2
   841     045D  0821               	movf	?___xxtofl+1,w
   842     045E  00B3               	movwf	___fldiv@b+1
   843     045F  0820               	movf	?___xxtofl,w
   844     0460  00B2               	movwf	___fldiv@b
   845     0461  3040               	movlw	64
   846     0462  00B1               	movwf	___fldiv@a+3
   847     0463  3002               	movlw	2
   848     0464  00B0               	movwf	___fldiv@a+2
   849     0465  30F1               	movlw	241
   850     0466  00AF               	movwf	___fldiv@a+1
   851     0467  30AA               	movlw	170
   852     0468  00AE               	movwf	___fldiv@a
   853     0469  120A  118A  2217  120A  118A  	fcall	___fldiv
   854     046E  1283               	bcf	3,5	;RP0=0, select bank0
   855     046F  1303               	bcf	3,6	;RP1=0, select bank0
   856     0470  0831               	movf	?___fldiv+3,w
   857     0471  00CB               	movwf	___fltol@f1+3
   858     0472  0830               	movf	?___fldiv+2,w
   859     0473  00CA               	movwf	___fltol@f1+2
   860     0474  082F               	movf	?___fldiv+1,w
   861     0475  00C9               	movwf	___fltol@f1+1
   862     0476  082E               	movf	?___fldiv,w
   863     0477  00C8               	movwf	___fltol@f1
   864     0478  120A  118A  26AA  120A  118A  	fcall	___fltol
   865     047D  1283               	bcf	3,5	;RP0=0, select bank0
   866     047E  1303               	bcf	3,6	;RP1=0, select bank0
   867     047F  0849               	movf	?___fltol+1,w
   868     0480  00D5               	movwf	main@temp1+1
   869     0481  0848               	movf	?___fltol,w
   870     0482  00D4               	movwf	main@temp1
   871                           
   872                           ;main.c: 51: lcd_cmd(0x80);
   873     0483  3080               	movlw	128
   874     0484  120A  158A  2718  120A  118A  	fcall	_lcd_cmd
   875     0489                     l1873:
   876                           
   877                           ;main.c: 52: lcd_caracter("T0 = ");
   878     0489  3012               	movlw	(low ((STR_3-__stringbase)| (0+32768)))& (0+255)
   879     048A  1283               	bcf	3,5	;RP0=0, select bank0
   880     048B  1303               	bcf	3,6	;RP1=0, select bank0
   881     048C  00A4               	movwf	lcd_caracter@str
   882     048D  3080               	movlw	128
   883     048E  00A5               	movwf	lcd_caracter@str+1
   884     048F  120A  158A  26E9  120A  118A  	fcall	_lcd_caracter
   885     0494                     l1875:
   886                           
   887                           ;main.c: 53: lcd_number(temp0);
   888     0494  1283               	bcf	3,5	;RP0=0, select bank0
   889     0495  1303               	bcf	3,6	;RP1=0, select bank0
   890     0496  0853               	movf	main@temp0+1,w
   891     0497  00BA               	movwf	lcd_number@nb+1
   892     0498  0852               	movf	main@temp0,w
   893     0499  00B9               	movwf	lcd_number@nb
   894     049A  120A  118A  27E2  120A  118A  	fcall	_lcd_number
   895     049F                     l1877:
   896                           
   897                           ;main.c: 54: lcd_caracter(" T1 = ");
   898     049F  300B               	movlw	(low ((STR_4-__stringbase)| (0+32768)))& (0+255)
   899     04A0  1283               	bcf	3,5	;RP0=0, select bank0
   900     04A1  1303               	bcf	3,6	;RP1=0, select bank0
   901     04A2  00A4               	movwf	lcd_caracter@str
   902     04A3  3080               	movlw	128
   903     04A4  00A5               	movwf	lcd_caracter@str+1
   904     04A5  120A  158A  26E9  120A  118A  	fcall	_lcd_caracter
   905     04AA                     l1879:
   906                           
   907                           ;main.c: 55: lcd_number(temp1);
   908     04AA  1283               	bcf	3,5	;RP0=0, select bank0
   909     04AB  1303               	bcf	3,6	;RP1=0, select bank0
   910     04AC  0855               	movf	main@temp1+1,w
   911     04AD  00BA               	movwf	lcd_number@nb+1
   912     04AE  0854               	movf	main@temp1,w
   913     04AF  00B9               	movwf	lcd_number@nb
   914     04B0  120A  118A  27E2  120A  118A  	fcall	_lcd_number
   915     04B5                     l1881:
   916                           
   917                           ;main.c: 57: temp2 = ReadData_from("AN5");
   918     04B5  3032               	movlw	(low ((STR_5-__stringbase)| (0+32768)))& (0+255)
   919     04B6  120A  118A  2722  120A  118A  	fcall	_ReadData_from
   920     04BB  1283               	bcf	3,5	;RP0=0, select bank0
   921     04BC  1303               	bcf	3,6	;RP1=0, select bank0
   922     04BD  0821               	movf	?_ReadData_from+1,w
   923     04BE  00D7               	movwf	main@temp2+1
   924     04BF  0820               	movf	?_ReadData_from,w
   925     04C0  00D6               	movwf	main@temp2
   926     04C1                     l1883:
   927                           
   928                           ;main.c: 58: temp2 = (int)(temp2/2.046);
   929     04C1  0856               	movf	main@temp2,w
   930     04C2  00A0               	movwf	___xxtofl@val
   931     04C3  0857               	movf	main@temp2+1,w
   932     04C4  00A1               	movwf	___xxtofl@val+1
   933     04C5  3000               	movlw	0
   934     04C6  1BA1               	btfsc	___xxtofl@val+1,7
   935     04C7  30FF               	movlw	255
   936     04C8  00A2               	movwf	___xxtofl@val+2
   937     04C9  00A3               	movwf	___xxtofl@val+3
   938     04CA  3001               	movlw	1
   939     04CB  120A  118A  25F0  120A  118A  	fcall	___xxtofl
   940     04D0  1283               	bcf	3,5	;RP0=0, select bank0
   941     04D1  1303               	bcf	3,6	;RP1=0, select bank0
   942     04D2  0823               	movf	?___xxtofl+3,w
   943     04D3  00B5               	movwf	___fldiv@b+3
   944     04D4  0822               	movf	?___xxtofl+2,w
   945     04D5  00B4               	movwf	___fldiv@b+2
   946     04D6  0821               	movf	?___xxtofl+1,w
   947     04D7  00B3               	movwf	___fldiv@b+1
   948     04D8  0820               	movf	?___xxtofl,w
   949     04D9  00B2               	movwf	___fldiv@b
   950     04DA  3040               	movlw	64
   951     04DB  00B1               	movwf	___fldiv@a+3
   952     04DC  3002               	movlw	2
   953     04DD  00B0               	movwf	___fldiv@a+2
   954     04DE  30F1               	movlw	241
   955     04DF  00AF               	movwf	___fldiv@a+1
   956     04E0  30AA               	movlw	170
   957     04E1  00AE               	movwf	___fldiv@a
   958     04E2  120A  118A  2217  120A  118A  	fcall	___fldiv
   959     04E7  1283               	bcf	3,5	;RP0=0, select bank0
   960     04E8  1303               	bcf	3,6	;RP1=0, select bank0
   961     04E9  0831               	movf	?___fldiv+3,w
   962     04EA  00CB               	movwf	___fltol@f1+3
   963     04EB  0830               	movf	?___fldiv+2,w
   964     04EC  00CA               	movwf	___fltol@f1+2
   965     04ED  082F               	movf	?___fldiv+1,w
   966     04EE  00C9               	movwf	___fltol@f1+1
   967     04EF  082E               	movf	?___fldiv,w
   968     04F0  00C8               	movwf	___fltol@f1
   969     04F1  120A  118A  26AA  120A  118A  	fcall	___fltol
   970     04F6  1283               	bcf	3,5	;RP0=0, select bank0
   971     04F7  1303               	bcf	3,6	;RP1=0, select bank0
   972     04F8  0849               	movf	?___fltol+1,w
   973     04F9  00D7               	movwf	main@temp2+1
   974     04FA  0848               	movf	?___fltol,w
   975     04FB  00D6               	movwf	main@temp2
   976     04FC                     l1885:
   977                           
   978                           ;main.c: 59: lcd_cmd(0xC0);
   979     04FC  30C0               	movlw	192
   980     04FD  120A  158A  2718  120A  118A  	fcall	_lcd_cmd
   981     0502                     l1887:
   982                           
   983                           ;main.c: 60: lcd_caracter("T2 = ");
   984     0502  3018               	movlw	(low ((STR_6-__stringbase)| (0+32768)))& (0+255)
   985     0503  1283               	bcf	3,5	;RP0=0, select bank0
   986     0504  1303               	bcf	3,6	;RP1=0, select bank0
   987     0505  00A4               	movwf	lcd_caracter@str
   988     0506  3080               	movlw	128
   989     0507  00A5               	movwf	lcd_caracter@str+1
   990     0508  120A  158A  26E9  120A  118A  	fcall	_lcd_caracter
   991     050D                     l1889:
   992                           
   993                           ;main.c: 61: lcd_number(temp2);
   994     050D  1283               	bcf	3,5	;RP0=0, select bank0
   995     050E  1303               	bcf	3,6	;RP1=0, select bank0
   996     050F  0857               	movf	main@temp2+1,w
   997     0510  00BA               	movwf	lcd_number@nb+1
   998     0511  0856               	movf	main@temp2,w
   999     0512  00B9               	movwf	lcd_number@nb
  1000     0513  120A  118A  27E2  120A  118A  	fcall	_lcd_number
  1001     0518  2BF5               	goto	l1865
  1002     0519  120A  118A  280E   	ljmp	start
  1003     051C                     __end_of_main:
  1004                           
  1005                           	psect	text1
  1006     07E2                     __ptext1:	
  1007 ;; *************** function _lcd_number *****************
  1008 ;; Defined at:
  1009 ;;		line 150 in file "main.c"
  1010 ;; Parameters:    Size  Location     Type
  1011 ;;  nb              2   25[BANK0 ] int 
  1012 ;; Auto vars:     Size  Location     Type
  1013 ;;  strNb          10   27[BANK0 ] unsigned char [10]
  1014 ;; Return value:  Size  Location     Type
  1015 ;;                  1    wreg      void 
  1016 ;; Registers used:
  1017 ;;		wreg, fsr0l, fsr0h, status,2, status,0, btemp+1, pclath, cstack
  1018 ;; Tracked objects:
  1019 ;;		On entry : 0/0
  1020 ;;		On exit  : 0/0
  1021 ;;		Unchanged: 0/0
  1022 ;; Data sizes:     COMMON   BANK0   BANK1   BANK3   BANK2
  1023 ;;      Params:         0       2       0       0       0
  1024 ;;      Locals:         0      10       0       0       0
  1025 ;;      Temps:          0       0       0       0       0
  1026 ;;      Totals:         0      12       0       0       0
  1027 ;;Total ram usage:       12 bytes
  1028 ;; Hardware stack levels used: 1
  1029 ;; Hardware stack levels required when called: 4
  1030 ;; This function calls:
  1031 ;;		_lcd_caracter
  1032 ;;		_sprintf
  1033 ;; This function is called by:
  1034 ;;		_main
  1035 ;; This function uses a non-reentrant model
  1036 ;;
  1037                           
  1038     07E2                     _lcd_number:	
  1039                           ;psect for function _lcd_number
  1040                           
  1041     07E2                     l1629:	
  1042                           ;incstack = 0
  1043                           ; Regs used in _lcd_number: [wreg-fsr0h+status,2+status,0+btemp+1+pclath+cstack]
  1044                           
  1045                           
  1046                           ;main.c: 151: unsigned char strNb[10];;main.c: 152: sprintf(strNb, "%d", nb) ;
  1047     07E2  303E               	movlw	(low ((STR_15-__stringbase)| (0+32768)))& (0+255)
  1048     07E3  1283               	bcf	3,5	;RP0=0, select bank0
  1049     07E4  1303               	bcf	3,6	;RP1=0, select bank0
  1050     07E5  00AC               	movwf	sprintf@f
  1051     07E6  083A               	movf	lcd_number@nb+1,w
  1052     07E7  00AE               	movwf	?_sprintf+2
  1053     07E8  0839               	movf	lcd_number@nb,w
  1054     07E9  00AD               	movwf	?_sprintf+1
  1055     07EA  303B               	movlw	(low (lcd_number@strNb| 0))& (0+255)
  1056     07EB  120A  118A  251C  120A  118A  	fcall	_sprintf
  1057                           
  1058                           ;main.c: 153: lcd_caracter(strNb);
  1059     07F0  303B               	movlw	(low (lcd_number@strNb| 0))& (0+255)
  1060     07F1  1283               	bcf	3,5	;RP0=0, select bank0
  1061     07F2  1303               	bcf	3,6	;RP1=0, select bank0
  1062     07F3  00A4               	movwf	lcd_caracter@str
  1063     07F4  3000               	movlw	0
  1064     07F5  00A5               	movwf	lcd_caracter@str+1
  1065     07F6  120A  158A  26E9  120A  118A  	fcall	_lcd_caracter
  1066     07FB                     l124:
  1067     07FB  0008               	return
  1068     07FC                     __end_of_lcd_number:
  1069                           
  1070                           	psect	text2
  1071     051C                     __ptext2:	
  1072 ;; *************** function _sprintf *****************
  1073 ;; Defined at:
  1074 ;;		line 505 in file "C:\Program Files\Microchip\xc8\v2.41\pic\sources\c90\common\doprnt.c"
  1075 ;; Parameters:    Size  Location     Type
  1076 ;;  sp              1    wreg     PTR unsigned char 
  1077 ;;		 -> lcd_number@strNb(10), 
  1078 ;;  f               1   12[BANK0 ] PTR const unsigned char 
  1079 ;;		 -> STR_15(3), 
  1080 ;; Auto vars:     Size  Location     Type
  1081 ;;  sp              1   23[BANK0 ] PTR unsigned char 
  1082 ;;		 -> lcd_number@strNb(10), 
  1083 ;;  tmpval          4    0        struct .
  1084 ;;  val             2   21[BANK0 ] unsigned int 
  1085 ;;  cp              2    0        PTR const unsigned char 
  1086 ;;  len             2    0        unsigned int 
  1087 ;;  c               1   24[BANK0 ] unsigned char 
  1088 ;;  prec            1   20[BANK0 ] char 
  1089 ;;  flag            1   19[BANK0 ] unsigned char 
  1090 ;;  ap              1   18[BANK0 ] PTR void [1]
  1091 ;;		 -> ?_sprintf(2), 
  1092 ;; Return value:  Size  Location     Type
  1093 ;;                  2   12[BANK0 ] int 
  1094 ;; Registers used:
  1095 ;;		wreg, fsr0l, fsr0h, status,2, status,0, btemp+1, pclath, cstack
  1096 ;; Tracked objects:
  1097 ;;		On entry : 0/0
  1098 ;;		On exit  : 0/0
  1099 ;;		Unchanged: 0/0
  1100 ;; Data sizes:     COMMON   BANK0   BANK1   BANK3   BANK2
  1101 ;;      Params:         0       3       0       0       0
  1102 ;;      Locals:         0       7       0       0       0
  1103 ;;      Temps:          0       3       0       0       0
  1104 ;;      Totals:         0      13       0       0       0
  1105 ;;Total ram usage:       13 bytes
  1106 ;; Hardware stack levels used: 1
  1107 ;; Hardware stack levels required when called: 2
  1108 ;; This function calls:
  1109 ;;		___lwdiv
  1110 ;;		___lwmod
  1111 ;; This function is called by:
  1112 ;;		_lcd_number
  1113 ;; This function uses a non-reentrant model
  1114 ;;
  1115                           
  1116     051C                     _sprintf:	
  1117                           ;psect for function _sprintf
  1118                           
  1119                           
  1120                           ;incstack = 0
  1121                           ; Regs used in _sprintf: [wreg-fsr0h+status,2+status,0+btemp+1+pclath+cstack]
  1122                           ;sprintf@sp stored from wreg
  1123     051C  1283               	bcf	3,5	;RP0=0, select bank0
  1124     051D  1303               	bcf	3,6	;RP1=0, select bank0
  1125     051E  00B7               	movwf	sprintf@sp
  1126     051F                     l1523:
  1127                           
  1128                           ;doprnt.c: 507: va_list ap;;doprnt.c: 512: char c;;doprnt.c: 521: signed char prec;;dopr
      +                          nt.c: 525: unsigned char flag;;doprnt.c: 540: union {;doprnt.c: 541: unsigned long vd;;d
      +                          oprnt.c: 542: double integ;;doprnt.c: 543: } tmpval;;doprnt.c: 545: unsigned int val;;do
      +                          prnt.c: 546: unsigned len;;doprnt.c: 547: const char * cp;;doprnt.c: 550: *ap = __va_sta
      +                          rt();
  1129     051F  302D               	movlw	(low ((?_sprintf| 0+1)))& (0+255)
  1130     0520  00B2               	movwf	sprintf@ap
  1131                           
  1132                           ;doprnt.c: 553: while((c = *f++)) {
  1133     0521  2DDB               	goto	l1577
  1134     0522                     l1525:
  1135                           
  1136                           ;doprnt.c: 555: if(c != '%')
  1137     0522  3025               	movlw	37
  1138     0523  0638               	xorwf	sprintf@c,w
  1139     0524  1903               	btfsc	3,2
  1140     0525  2D27               	goto	u1351
  1141     0526  2D28               	goto	u1350
  1142     0527                     u1351:
  1143     0527  2D32               	goto	l1531
  1144     0528                     u1350:
  1145     0528                     l1527:
  1146                           
  1147                           ;doprnt.c: 557: {;doprnt.c: 558: ((*sp++ = (c)));
  1148     0528  0837               	movf	sprintf@sp,w
  1149     0529  0084               	movwf	4
  1150     052A  0838               	movf	sprintf@c,w
  1151     052B  1383               	bcf	3,7	;select IRP bank0
  1152     052C  0080               	movwf	0
  1153     052D                     l1529:
  1154     052D  3001               	movlw	1
  1155     052E  00FF               	movwf	btemp+1
  1156     052F  087F               	movf	btemp+1,w
  1157     0530  07B7               	addwf	sprintf@sp,f
  1158                           
  1159                           ;doprnt.c: 559: continue;
  1160     0531  2DDB               	goto	l1577
  1161     0532                     l1531:
  1162                           
  1163                           ;doprnt.c: 560: };doprnt.c: 565: flag = 0;
  1164     0532  01B3               	clrf	sprintf@flag
  1165     0533                     l1535:	
  1166                           ;doprnt.c: 661: switch(c = *f++) {
  1167                           
  1168     0533  3001               	movlw	1
  1169     0534  07AC               	addwf	sprintf@f,f
  1170     0535  30FF               	movlw	-1
  1171     0536  072C               	addwf	sprintf@f,w
  1172     0537  0084               	movwf	4
  1173     0538  120A  118A  279C  120A  118A  	fcall	stringdir
  1174     053D  00B8               	movwf	sprintf@c
  1175                           
  1176                           ; Switch size 1, requested type "simple"
  1177                           ; Number of cases is 3, Range of values is 0 to 105
  1178                           ; switch strategies available:
  1179                           ; Name         Instructions Cycles
  1180                           ; simple_byte           10     6 (average)
  1181                           ; jumptable            260     6 (fixed)
  1182                           ;	Chosen strategy is simple_byte
  1183     053E  3A00               	xorlw	0	; case 0
  1184     053F  1903               	skipnz
  1185     0540  2DEB               	goto	l1579
  1186     0541  3A64               	xorlw	100	; case 100
  1187     0542  1903               	skipnz
  1188     0543  2D48               	goto	l1537
  1189     0544  3A0D               	xorlw	13	; case 105
  1190     0545  1903               	skipnz
  1191     0546  2D48               	goto	l1537
  1192     0547  2DDB               	goto	l1577
  1193     0548                     l1537:
  1194                           
  1195                           ;doprnt.c: 1279: {;doprnt.c: 1285: val = (unsigned int)(*(int *)__va_arg((*(int **)ap), 
      +                          (int)0));
  1196     0548  0832               	movf	sprintf@ap,w
  1197     0549  0084               	movwf	4
  1198     054A  1383               	bcf	3,7	;select IRP bank0
  1199     054B  0800               	movf	0,w
  1200     054C  00B5               	movwf	sprintf@val
  1201     054D  0A84               	incf	4,f
  1202     054E  0800               	movf	0,w
  1203     054F  00B6               	movwf	sprintf@val+1
  1204     0550                     l1539:
  1205     0550  3002               	movlw	2
  1206     0551  00FF               	movwf	btemp+1
  1207     0552  087F               	movf	btemp+1,w
  1208     0553  07B2               	addwf	sprintf@ap,f
  1209     0554                     l1541:
  1210                           
  1211                           ;doprnt.c: 1287: if((int)val < 0) {
  1212     0554  1FB6               	btfss	sprintf@val+1,7
  1213     0555  2D57               	goto	u1361
  1214     0556  2D58               	goto	u1360
  1215     0557                     u1361:
  1216     0557  2D61               	goto	l1547
  1217     0558                     u1360:
  1218     0558                     l1543:
  1219                           
  1220                           ;doprnt.c: 1288: flag |= 0x03;
  1221     0558  3003               	movlw	3
  1222     0559  00FF               	movwf	btemp+1
  1223     055A  087F               	movf	btemp+1,w
  1224     055B  04B3               	iorwf	sprintf@flag,f
  1225     055C                     l1545:
  1226                           
  1227                           ;doprnt.c: 1289: val = -val;
  1228     055C  09B5               	comf	sprintf@val,f
  1229     055D  09B6               	comf	sprintf@val+1,f
  1230     055E  0AB5               	incf	sprintf@val,f
  1231     055F  1903               	skipnz
  1232     0560  0AB6               	incf	sprintf@val+1,f
  1233     0561                     l1547:
  1234                           
  1235                           ;doprnt.c: 1290: };doprnt.c: 1292: };doprnt.c: 1331: for(c = 1 ; c != sizeof dpowers/siz
      +                          eof dpowers[0] ; c++)
  1236     0561  01B8               	clrf	sprintf@c
  1237     0562  0AB8               	incf	sprintf@c,f
  1238     0563                     l1553:
  1239                           
  1240                           ;doprnt.c: 1332: if(val < dpowers[c])
  1241     0563  0838               	movf	sprintf@c,w
  1242     0564  00AF               	movwf	??_sprintf
  1243     0565  072F               	addwf	??_sprintf,w
  1244     0566  3E01               	addlw	low ((_dpowers-__stringbase)| (0+32768))
  1245     0567  0084               	movwf	4
  1246     0568  120A  118A  279C  120A  118A  	fcall	stringdir
  1247     056D  00B0               	movwf	??_sprintf+1
  1248     056E  120A  118A  279C  120A  118A  	fcall	stringdir
  1249     0573  00B1               	movwf	??_sprintf+2
  1250     0574  0831               	movf	??_sprintf+2,w
  1251     0575  0236               	subwf	sprintf@val+1,w
  1252     0576  1D03               	skipz
  1253     0577  2D7A               	goto	u1375
  1254     0578  0830               	movf	??_sprintf+1,w
  1255     0579  0235               	subwf	sprintf@val,w
  1256     057A                     u1375:
  1257     057A  1803               	skipnc
  1258     057B  2D7D               	goto	u1371
  1259     057C  2D7E               	goto	u1370
  1260     057D                     u1371:
  1261     057D  2D7F               	goto	l1557
  1262     057E                     u1370:
  1263     057E  2D89               	goto	l1561
  1264     057F                     l1557:
  1265     057F  3001               	movlw	1
  1266     0580  00FF               	movwf	btemp+1
  1267     0581  087F               	movf	btemp+1,w
  1268     0582  07B8               	addwf	sprintf@c,f
  1269     0583                     l1559:
  1270     0583  3005               	movlw	5
  1271     0584  0638               	xorwf	sprintf@c,w
  1272     0585  1D03               	btfss	3,2
  1273     0586  2D88               	goto	u1381
  1274     0587  2D89               	goto	u1380
  1275     0588                     u1381:
  1276     0588  2D63               	goto	l1553
  1277     0589                     u1380:
  1278     0589                     l1561:
  1279                           
  1280                           ;doprnt.c: 1448: {;doprnt.c: 1464: if(flag & 0x03)
  1281     0589  0833               	movf	sprintf@flag,w
  1282     058A  3903               	andlw	3
  1283     058B  1903               	btfsc	3,2
  1284     058C  2D8E               	goto	u1391
  1285     058D  2D8F               	goto	u1390
  1286     058E                     u1391:
  1287     058E  2D98               	goto	l1567
  1288     058F                     u1390:
  1289     058F                     l1563:
  1290                           
  1291                           ;doprnt.c: 1465: ((*sp++ = ('-')));
  1292     058F  0837               	movf	sprintf@sp,w
  1293     0590  0084               	movwf	4
  1294     0591  302D               	movlw	45
  1295     0592  1383               	bcf	3,7	;select IRP bank0
  1296     0593  0080               	movwf	0
  1297     0594                     l1565:
  1298     0594  3001               	movlw	1
  1299     0595  00FF               	movwf	btemp+1
  1300     0596  087F               	movf	btemp+1,w
  1301     0597  07B7               	addwf	sprintf@sp,f
  1302     0598                     l1567:
  1303                           
  1304                           ;doprnt.c: 1495: };doprnt.c: 1498: prec = c;
  1305     0598  0838               	movf	sprintf@c,w
  1306     0599  00B4               	movwf	sprintf@prec
  1307                           
  1308                           ;doprnt.c: 1500: while(prec--) {
  1309     059A  2DD2               	goto	l1575
  1310     059B                     l1569:
  1311                           
  1312                           ;doprnt.c: 1504: {;doprnt.c: 1515: c = (val / dpowers[(unsigned char)prec]) % 10 + '0';
  1313     059B  300A               	movlw	10
  1314     059C  00A7               	movwf	___lwmod@divisor
  1315     059D  3000               	movlw	0
  1316     059E  00A8               	movwf	___lwmod@divisor+1
  1317     059F  0834               	movf	sprintf@prec,w
  1318     05A0  00AF               	movwf	??_sprintf
  1319     05A1  072F               	addwf	??_sprintf,w
  1320     05A2  3E01               	addlw	low ((_dpowers-__stringbase)| (0+32768))
  1321     05A3  0084               	movwf	4
  1322     05A4  120A  118A  279C  120A  118A  	fcall	stringdir
  1323     05A9  00A0               	movwf	___lwdiv@divisor
  1324     05AA  120A  118A  279C  120A  118A  	fcall	stringdir
  1325     05AF  00A1               	movwf	___lwdiv@divisor+1
  1326     05B0  0836               	movf	sprintf@val+1,w
  1327     05B1  00A3               	movwf	___lwdiv@dividend+1
  1328     05B2  0835               	movf	sprintf@val,w
  1329     05B3  00A2               	movwf	___lwdiv@dividend
  1330     05B4  120A  158A  27BA  120A  118A  	fcall	___lwdiv
  1331     05B9  1283               	bcf	3,5	;RP0=0, select bank0
  1332     05BA  1303               	bcf	3,6	;RP1=0, select bank0
  1333     05BB  0821               	movf	?___lwdiv+1,w
  1334     05BC  00AA               	movwf	___lwmod@dividend+1
  1335     05BD  0820               	movf	?___lwdiv,w
  1336     05BE  00A9               	movwf	___lwmod@dividend
  1337     05BF  120A  158A  277E  120A  118A  	fcall	___lwmod
  1338     05C4  1283               	bcf	3,5	;RP0=0, select bank0
  1339     05C5  1303               	bcf	3,6	;RP1=0, select bank0
  1340     05C6  0827               	movf	?___lwmod,w
  1341     05C7  3E30               	addlw	48
  1342     05C8  00B8               	movwf	sprintf@c
  1343     05C9                     l1571:
  1344                           
  1345                           ;doprnt.c: 1549: };doprnt.c: 1550: ((*sp++ = (c)));
  1346     05C9  0837               	movf	sprintf@sp,w
  1347     05CA  0084               	movwf	4
  1348     05CB  0838               	movf	sprintf@c,w
  1349     05CC  1383               	bcf	3,7	;select IRP bank0
  1350     05CD  0080               	movwf	0
  1351     05CE                     l1573:
  1352     05CE  3001               	movlw	1
  1353     05CF  00FF               	movwf	btemp+1
  1354     05D0  087F               	movf	btemp+1,w
  1355     05D1  07B7               	addwf	sprintf@sp,f
  1356     05D2                     l1575:
  1357     05D2  30FF               	movlw	255
  1358     05D3  00FF               	movwf	btemp+1
  1359     05D4  087F               	movf	btemp+1,w
  1360     05D5  07B4               	addwf	sprintf@prec,f
  1361     05D6  0A34               	incf	sprintf@prec,w
  1362     05D7  1D03               	btfss	3,2
  1363     05D8  2DDA               	goto	u1401
  1364     05D9  2DDB               	goto	u1400
  1365     05DA                     u1401:
  1366     05DA  2D9B               	goto	l1569
  1367     05DB                     u1400:
  1368     05DB                     l1577:
  1369     05DB  3001               	movlw	1
  1370     05DC  07AC               	addwf	sprintf@f,f
  1371     05DD  30FF               	movlw	-1
  1372     05DE  072C               	addwf	sprintf@f,w
  1373     05DF  0084               	movwf	4
  1374     05E0  120A  118A  279C  120A  118A  	fcall	stringdir
  1375     05E5  00B8               	movwf	sprintf@c
  1376     05E6  0838               	movf	sprintf@c,w
  1377     05E7  1D03               	btfss	3,2
  1378     05E8  2DEA               	goto	u1411
  1379     05E9  2DEB               	goto	u1410
  1380     05EA                     u1411:
  1381     05EA  2D22               	goto	l1525
  1382     05EB                     u1410:
  1383     05EB                     l1579:
  1384                           
  1385                           ;doprnt.c: 1564: *sp = 0;
  1386     05EB  0837               	movf	sprintf@sp,w
  1387     05EC  0084               	movwf	4
  1388     05ED  1383               	bcf	3,7	;select IRP bank0
  1389     05EE  0180               	clrf	0
  1390     05EF                     l263:
  1391     05EF  0008               	return
  1392     05F0                     __end_of_sprintf:
  1393                           
  1394                           	psect	text3
  1395     0F7E                     __ptext3:	
  1396 ;; *************** function ___lwmod *****************
  1397 ;; Defined at:
  1398 ;;		line 5 in file "C:\Program Files\Microchip\xc8\v2.41\pic\sources\c90\common\lwmod.c"
  1399 ;; Parameters:    Size  Location     Type
  1400 ;;  divisor         2    7[BANK0 ] unsigned int 
  1401 ;;  dividend        2    9[BANK0 ] unsigned int 
  1402 ;; Auto vars:     Size  Location     Type
  1403 ;;  counter         1   11[BANK0 ] unsigned char 
  1404 ;; Return value:  Size  Location     Type
  1405 ;;                  2    7[BANK0 ] unsigned int 
  1406 ;; Registers used:
  1407 ;;		wreg, status,2, status,0, btemp+1
  1408 ;; Tracked objects:
  1409 ;;		On entry : 0/0
  1410 ;;		On exit  : 0/0
  1411 ;;		Unchanged: 0/0
  1412 ;; Data sizes:     COMMON   BANK0   BANK1   BANK3   BANK2
  1413 ;;      Params:         0       4       0       0       0
  1414 ;;      Locals:         0       1       0       0       0
  1415 ;;      Temps:          0       0       0       0       0
  1416 ;;      Totals:         0       5       0       0       0
  1417 ;;Total ram usage:        5 bytes
  1418 ;; Hardware stack levels used: 1
  1419 ;; Hardware stack levels required when called: 1
  1420 ;; This function calls:
  1421 ;;		Nothing
  1422 ;; This function is called by:
  1423 ;;		_sprintf
  1424 ;; This function uses a non-reentrant model
  1425 ;;
  1426                           
  1427     0F7E                     ___lwmod:	
  1428                           ;psect for function ___lwmod
  1429                           
  1430     0F7E                     l1467:	
  1431                           ;incstack = 0
  1432                           ; Regs used in ___lwmod: [wreg+status,2+status,0+btemp+1]
  1433                           
  1434     0F7E  1283               	bcf	3,5	;RP0=0, select bank0
  1435     0F7F  1303               	bcf	3,6	;RP1=0, select bank0
  1436     0F80  0827               	movf	___lwmod@divisor,w
  1437     0F81  0428               	iorwf	___lwmod@divisor+1,w
  1438     0F82  1903               	btfsc	3,2
  1439     0F83  2F85               	goto	u1271
  1440     0F84  2F86               	goto	u1270
  1441     0F85                     u1271:
  1442     0F85  2FB5               	goto	l1485
  1443     0F86                     u1270:
  1444     0F86                     l1469:
  1445     0F86  01AB               	clrf	___lwmod@counter
  1446     0F87  0AAB               	incf	___lwmod@counter,f
  1447     0F88  2F94               	goto	l1475
  1448     0F89                     l1471:
  1449     0F89  3001               	movlw	1
  1450     0F8A                     u1285:
  1451     0F8A  1003               	clrc
  1452     0F8B  0DA7               	rlf	___lwmod@divisor,f
  1453     0F8C  0DA8               	rlf	___lwmod@divisor+1,f
  1454     0F8D  3EFF               	addlw	-1
  1455     0F8E  1D03               	skipz
  1456     0F8F  2F8A               	goto	u1285
  1457     0F90                     l1473:
  1458     0F90  3001               	movlw	1
  1459     0F91  00FF               	movwf	btemp+1
  1460     0F92  087F               	movf	btemp+1,w
  1461     0F93  07AB               	addwf	___lwmod@counter,f
  1462     0F94                     l1475:
  1463     0F94  1FA8               	btfss	___lwmod@divisor+1,7
  1464     0F95  2F97               	goto	u1291
  1465     0F96  2F98               	goto	u1290
  1466     0F97                     u1291:
  1467     0F97  2F89               	goto	l1471
  1468     0F98                     u1290:
  1469     0F98                     l1477:
  1470     0F98  0828               	movf	___lwmod@divisor+1,w
  1471     0F99  022A               	subwf	___lwmod@dividend+1,w
  1472     0F9A  1D03               	skipz
  1473     0F9B  2F9E               	goto	u1305
  1474     0F9C  0827               	movf	___lwmod@divisor,w
  1475     0F9D  0229               	subwf	___lwmod@dividend,w
  1476     0F9E                     u1305:
  1477     0F9E  1C03               	skipc
  1478     0F9F  2FA1               	goto	u1301
  1479     0FA0  2FA2               	goto	u1300
  1480     0FA1                     u1301:
  1481     0FA1  2FA8               	goto	l1481
  1482     0FA2                     u1300:
  1483     0FA2                     l1479:
  1484     0FA2  0827               	movf	___lwmod@divisor,w
  1485     0FA3  02A9               	subwf	___lwmod@dividend,f
  1486     0FA4  0828               	movf	___lwmod@divisor+1,w
  1487     0FA5  1C03               	skipc
  1488     0FA6  03AA               	decf	___lwmod@dividend+1,f
  1489     0FA7  02AA               	subwf	___lwmod@dividend+1,f
  1490     0FA8                     l1481:
  1491     0FA8  3001               	movlw	1
  1492     0FA9                     u1315:
  1493     0FA9  1003               	clrc
  1494     0FAA  0CA8               	rrf	___lwmod@divisor+1,f
  1495     0FAB  0CA7               	rrf	___lwmod@divisor,f
  1496     0FAC  3EFF               	addlw	-1
  1497     0FAD  1D03               	skipz
  1498     0FAE  2FA9               	goto	u1315
  1499     0FAF                     l1483:
  1500     0FAF  3001               	movlw	1
  1501     0FB0  02AB               	subwf	___lwmod@counter,f
  1502     0FB1  1D03               	btfss	3,2
  1503     0FB2  2FB4               	goto	u1321
  1504     0FB3  2FB5               	goto	u1320
  1505     0FB4                     u1321:
  1506     0FB4  2F98               	goto	l1477
  1507     0FB5                     u1320:
  1508     0FB5                     l1485:
  1509     0FB5  082A               	movf	___lwmod@dividend+1,w
  1510     0FB6  00A8               	movwf	?___lwmod+1
  1511     0FB7  0829               	movf	___lwmod@dividend,w
  1512     0FB8  00A7               	movwf	?___lwmod
  1513     0FB9                     l549:
  1514     0FB9  0008               	return
  1515     0FBA                     __end_of___lwmod:
  1516                           
  1517                           	psect	text4
  1518     0FBA                     __ptext4:	
  1519 ;; *************** function ___lwdiv *****************
  1520 ;; Defined at:
  1521 ;;		line 5 in file "C:\Program Files\Microchip\xc8\v2.41\pic\sources\c90\common\lwdiv.c"
  1522 ;; Parameters:    Size  Location     Type
  1523 ;;  divisor         2    0[BANK0 ] unsigned int 
  1524 ;;  dividend        2    2[BANK0 ] unsigned int 
  1525 ;; Auto vars:     Size  Location     Type
  1526 ;;  quotient        2    4[BANK0 ] unsigned int 
  1527 ;;  counter         1    6[BANK0 ] unsigned char 
  1528 ;; Return value:  Size  Location     Type
  1529 ;;                  2    0[BANK0 ] unsigned int 
  1530 ;; Registers used:
  1531 ;;		wreg, status,2, status,0, btemp+1
  1532 ;; Tracked objects:
  1533 ;;		On entry : 0/0
  1534 ;;		On exit  : 0/0
  1535 ;;		Unchanged: 0/0
  1536 ;; Data sizes:     COMMON   BANK0   BANK1   BANK3   BANK2
  1537 ;;      Params:         0       4       0       0       0
  1538 ;;      Locals:         0       3       0       0       0
  1539 ;;      Temps:          0       0       0       0       0
  1540 ;;      Totals:         0       7       0       0       0
  1541 ;;Total ram usage:        7 bytes
  1542 ;; Hardware stack levels used: 1
  1543 ;; Hardware stack levels required when called: 1
  1544 ;; This function calls:
  1545 ;;		Nothing
  1546 ;; This function is called by:
  1547 ;;		_sprintf
  1548 ;; This function uses a non-reentrant model
  1549 ;;
  1550                           
  1551     0FBA                     ___lwdiv:	
  1552                           ;psect for function ___lwdiv
  1553                           
  1554     0FBA                     l1441:	
  1555                           ;incstack = 0
  1556                           ; Regs used in ___lwdiv: [wreg+status,2+status,0+btemp+1]
  1557                           
  1558     0FBA  1283               	bcf	3,5	;RP0=0, select bank0
  1559     0FBB  1303               	bcf	3,6	;RP1=0, select bank0
  1560     0FBC  01A4               	clrf	___lwdiv@quotient
  1561     0FBD  01A5               	clrf	___lwdiv@quotient+1
  1562     0FBE                     l1443:
  1563     0FBE  0820               	movf	___lwdiv@divisor,w
  1564     0FBF  0421               	iorwf	___lwdiv@divisor+1,w
  1565     0FC0  1903               	btfsc	3,2
  1566     0FC1  2FC3               	goto	u1201
  1567     0FC2  2FC4               	goto	u1200
  1568     0FC3                     u1201:
  1569     0FC3  2FFB               	goto	l1463
  1570     0FC4                     u1200:
  1571     0FC4                     l1445:
  1572     0FC4  01A6               	clrf	___lwdiv@counter
  1573     0FC5  0AA6               	incf	___lwdiv@counter,f
  1574     0FC6  2FD2               	goto	l1451
  1575     0FC7                     l1447:
  1576     0FC7  3001               	movlw	1
  1577     0FC8                     u1215:
  1578     0FC8  1003               	clrc
  1579     0FC9  0DA0               	rlf	___lwdiv@divisor,f
  1580     0FCA  0DA1               	rlf	___lwdiv@divisor+1,f
  1581     0FCB  3EFF               	addlw	-1
  1582     0FCC  1D03               	skipz
  1583     0FCD  2FC8               	goto	u1215
  1584     0FCE                     l1449:
  1585     0FCE  3001               	movlw	1
  1586     0FCF  00FF               	movwf	btemp+1
  1587     0FD0  087F               	movf	btemp+1,w
  1588     0FD1  07A6               	addwf	___lwdiv@counter,f
  1589     0FD2                     l1451:
  1590     0FD2  1FA1               	btfss	___lwdiv@divisor+1,7
  1591     0FD3  2FD5               	goto	u1221
  1592     0FD4  2FD6               	goto	u1220
  1593     0FD5                     u1221:
  1594     0FD5  2FC7               	goto	l1447
  1595     0FD6                     u1220:
  1596     0FD6                     l1453:
  1597     0FD6  3001               	movlw	1
  1598     0FD7                     u1235:
  1599     0FD7  1003               	clrc
  1600     0FD8  0DA4               	rlf	___lwdiv@quotient,f
  1601     0FD9  0DA5               	rlf	___lwdiv@quotient+1,f
  1602     0FDA  3EFF               	addlw	-1
  1603     0FDB  1D03               	skipz
  1604     0FDC  2FD7               	goto	u1235
  1605     0FDD  0821               	movf	___lwdiv@divisor+1,w
  1606     0FDE  0223               	subwf	___lwdiv@dividend+1,w
  1607     0FDF  1D03               	skipz
  1608     0FE0  2FE3               	goto	u1245
  1609     0FE1  0820               	movf	___lwdiv@divisor,w
  1610     0FE2  0222               	subwf	___lwdiv@dividend,w
  1611     0FE3                     u1245:
  1612     0FE3  1C03               	skipc
  1613     0FE4  2FE6               	goto	u1241
  1614     0FE5  2FE7               	goto	u1240
  1615     0FE6                     u1241:
  1616     0FE6  2FEE               	goto	l1459
  1617     0FE7                     u1240:
  1618     0FE7                     l1455:
  1619     0FE7  0820               	movf	___lwdiv@divisor,w
  1620     0FE8  02A2               	subwf	___lwdiv@dividend,f
  1621     0FE9  0821               	movf	___lwdiv@divisor+1,w
  1622     0FEA  1C03               	skipc
  1623     0FEB  03A3               	decf	___lwdiv@dividend+1,f
  1624     0FEC  02A3               	subwf	___lwdiv@dividend+1,f
  1625     0FED                     l1457:
  1626     0FED  1424               	bsf	___lwdiv@quotient,0
  1627     0FEE                     l1459:
  1628     0FEE  3001               	movlw	1
  1629     0FEF                     u1255:
  1630     0FEF  1003               	clrc
  1631     0FF0  0CA1               	rrf	___lwdiv@divisor+1,f
  1632     0FF1  0CA0               	rrf	___lwdiv@divisor,f
  1633     0FF2  3EFF               	addlw	-1
  1634     0FF3  1D03               	skipz
  1635     0FF4  2FEF               	goto	u1255
  1636     0FF5                     l1461:
  1637     0FF5  3001               	movlw	1
  1638     0FF6  02A6               	subwf	___lwdiv@counter,f
  1639     0FF7  1D03               	btfss	3,2
  1640     0FF8  2FFA               	goto	u1261
  1641     0FF9  2FFB               	goto	u1260
  1642     0FFA                     u1261:
  1643     0FFA  2FD6               	goto	l1453
  1644     0FFB                     u1260:
  1645     0FFB                     l1463:
  1646     0FFB  0825               	movf	___lwdiv@quotient+1,w
  1647     0FFC  00A1               	movwf	?___lwdiv+1
  1648     0FFD  0824               	movf	___lwdiv@quotient,w
  1649     0FFE  00A0               	movwf	?___lwdiv
  1650     0FFF                     l539:
  1651     0FFF  0008               	return
  1652     1000                     __end_of___lwdiv:
  1653                           
  1654                           	psect	text5
  1655     0EE9                     __ptext5:	
  1656 ;; *************** function _lcd_caracter *****************
  1657 ;; Defined at:
  1658 ;;		line 144 in file "main.c"
  1659 ;; Parameters:    Size  Location     Type
  1660 ;;  str             2    4[BANK0 ] PTR const unsigned char 
  1661 ;;		 -> lcd_number@strNb(10), STR_6(6), STR_4(7), STR_3(6), 
  1662 ;; Auto vars:     Size  Location     Type
  1663 ;;  i               1    7[BANK0 ] unsigned char 
  1664 ;;  num             1    6[BANK0 ] unsigned char 
  1665 ;; Return value:  Size  Location     Type
  1666 ;;                  1    wreg      void 
  1667 ;; Registers used:
  1668 ;;		wreg, fsr0l, fsr0h, status,2, status,0, btemp+1, pclath, cstack
  1669 ;; Tracked objects:
  1670 ;;		On entry : 0/0
  1671 ;;		On exit  : 0/0
  1672 ;;		Unchanged: 0/0
  1673 ;; Data sizes:     COMMON   BANK0   BANK1   BANK3   BANK2
  1674 ;;      Params:         0       2       0       0       0
  1675 ;;      Locals:         0       2       0       0       0
  1676 ;;      Temps:          0       0       0       0       0
  1677 ;;      Totals:         0       4       0       0       0
  1678 ;;Total ram usage:        4 bytes
  1679 ;; Hardware stack levels used: 1
  1680 ;; Hardware stack levels required when called: 3
  1681 ;; This function calls:
  1682 ;;		_lcd_data
  1683 ;;		_strlen
  1684 ;; This function is called by:
  1685 ;;		_main
  1686 ;;		_lcd_number
  1687 ;; This function uses a non-reentrant model
  1688 ;;
  1689                           
  1690     0EE9                     _lcd_caracter:	
  1691                           ;psect for function _lcd_caracter
  1692                           
  1693     0EE9                     l1513:	
  1694                           ;incstack = 0
  1695                           ; Regs used in _lcd_caracter: [wreg-fsr0h+status,2+status,0+btemp+1+pclath+cstack]
  1696                           
  1697                           
  1698                           ;main.c: 145: unsigned char i ,num = strlen(str) ;
  1699     0EE9  1283               	bcf	3,5	;RP0=0, select bank0
  1700     0EEA  1303               	bcf	3,6	;RP1=0, select bank0
  1701     0EEB  0824               	movf	lcd_caracter@str,w
  1702     0EEC  00A0               	movwf	strlen@s
  1703     0EED  0825               	movf	lcd_caracter@str+1,w
  1704     0EEE  00A1               	movwf	strlen@s+1
  1705     0EEF  120A  158A  26C5  120A  158A  	fcall	_strlen
  1706     0EF4  1283               	bcf	3,5	;RP0=0, select bank0
  1707     0EF5  1303               	bcf	3,6	;RP1=0, select bank0
  1708     0EF6  0820               	movf	?_strlen,w
  1709     0EF7  00A6               	movwf	lcd_caracter@num
  1710     0EF8                     l1515:
  1711                           
  1712                           ;main.c: 146: for(i=0;i<num;i++){
  1713     0EF8  01A7               	clrf	lcd_caracter@i
  1714     0EF9  2F11               	goto	l1521
  1715     0EFA                     l1517:
  1716                           
  1717                           ;main.c: 147: lcd_data(str[i]);
  1718     0EFA  0827               	movf	lcd_caracter@i,w
  1719     0EFB  0724               	addwf	lcd_caracter@str,w
  1720     0EFC  0084               	movwf	4
  1721     0EFD  0825               	movf	lcd_caracter@str+1,w
  1722     0EFE  1803               	skipnc
  1723     0EFF  0A25               	incf	lcd_caracter@str+1,w
  1724     0F00  00FF               	movwf	btemp+1
  1725     0F01  120A  118A  2792  120A  158A  	fcall	stringtab
  1726     0F06  120A  158A  274B  120A  158A  	fcall	_lcd_data
  1727     0F0B                     l1519:
  1728     0F0B  3001               	movlw	1
  1729     0F0C  00FF               	movwf	btemp+1
  1730     0F0D  087F               	movf	btemp+1,w
  1731     0F0E  1283               	bcf	3,5	;RP0=0, select bank0
  1732     0F0F  1303               	bcf	3,6	;RP1=0, select bank0
  1733     0F10  07A7               	addwf	lcd_caracter@i,f
  1734     0F11                     l1521:
  1735     0F11  0826               	movf	lcd_caracter@num,w
  1736     0F12  0227               	subwf	lcd_caracter@i,w
  1737     0F13  1C03               	skipc
  1738     0F14  2F16               	goto	u1341
  1739     0F15  2F17               	goto	u1340
  1740     0F16                     u1341:
  1741     0F16  2EFA               	goto	l1517
  1742     0F17                     u1340:
  1743     0F17                     l121:
  1744     0F17  0008               	return
  1745     0F18                     __end_of_lcd_caracter:
  1746                           
  1747                           	psect	text6
  1748     0EC5                     __ptext6:	
  1749 ;; *************** function _strlen *****************
  1750 ;; Defined at:
  1751 ;;		line 4 in file "C:\Program Files\Microchip\xc8\v2.41\pic\sources\c90\common\strlen.c"
  1752 ;; Parameters:    Size  Location     Type
  1753 ;;  s               2    0[BANK0 ] PTR const unsigned char 
  1754 ;;		 -> lcd_number@strNb(10), STR_6(6), STR_4(7), STR_3(6), 
  1755 ;; Auto vars:     Size  Location     Type
  1756 ;;  cp              2    2[BANK0 ] PTR const unsigned char 
  1757 ;;		 -> lcd_number@strNb(10), STR_6(6), STR_4(7), STR_3(6), 
  1758 ;; Return value:  Size  Location     Type
  1759 ;;                  2    0[BANK0 ] unsigned int 
  1760 ;; Registers used:
  1761 ;;		wreg, fsr0l, fsr0h, status,2, status,0, btemp+1, pclath
  1762 ;; Tracked objects:
  1763 ;;		On entry : 0/0
  1764 ;;		On exit  : 0/0
  1765 ;;		Unchanged: 0/0
  1766 ;; Data sizes:     COMMON   BANK0   BANK1   BANK3   BANK2
  1767 ;;      Params:         0       2       0       0       0
  1768 ;;      Locals:         0       2       0       0       0
  1769 ;;      Temps:          0       0       0       0       0
  1770 ;;      Totals:         0       4       0       0       0
  1771 ;;Total ram usage:        4 bytes
  1772 ;; Hardware stack levels used: 2
  1773 ;; Hardware stack levels required when called: 1
  1774 ;; This function calls:
  1775 ;;		Nothing
  1776 ;; This function is called by:
  1777 ;;		_lcd_caracter
  1778 ;; This function uses a non-reentrant model
  1779 ;;
  1780                           
  1781     0EC5                     _strlen:	
  1782                           ;psect for function _strlen
  1783                           
  1784     0EC5                     l1431:	
  1785                           ;incstack = 0
  1786                           ; Regs used in _strlen: [wreg-fsr0h+status,2+status,0+btemp+1+pclath]
  1787                           
  1788     0EC5  1283               	bcf	3,5	;RP0=0, select bank0
  1789     0EC6  1303               	bcf	3,6	;RP1=0, select bank0
  1790     0EC7  0820               	movf	strlen@s,w
  1791     0EC8  00A2               	movwf	strlen@cp
  1792     0EC9  0821               	movf	strlen@s+1,w
  1793     0ECA  00A3               	movwf	strlen@cp+1
  1794     0ECB  2ED2               	goto	l1435
  1795     0ECC                     l1433:
  1796     0ECC  3001               	movlw	1
  1797     0ECD  07A2               	addwf	strlen@cp,f
  1798     0ECE  1803               	skipnc
  1799     0ECF  0AA3               	incf	strlen@cp+1,f
  1800     0ED0  3000               	movlw	0
  1801     0ED1  07A3               	addwf	strlen@cp+1,f
  1802     0ED2                     l1435:
  1803     0ED2  0823               	movf	strlen@cp+1,w
  1804     0ED3  00FF               	movwf	btemp+1
  1805     0ED4  0822               	movf	strlen@cp,w
  1806     0ED5  0084               	movwf	4
  1807     0ED6  120A  118A  2792  120A  158A  	fcall	stringtab
  1808     0EDB  3A00               	xorlw	0
  1809     0EDC  1D03               	skipz
  1810     0EDD  2EDF               	goto	u1191
  1811     0EDE  2EE0               	goto	u1190
  1812     0EDF                     u1191:
  1813     0EDF  2ECC               	goto	l1433
  1814     0EE0                     u1190:
  1815     0EE0                     l1437:
  1816     0EE0  0820               	movf	strlen@s,w
  1817     0EE1  0222               	subwf	strlen@cp,w
  1818     0EE2  00A0               	movwf	?_strlen
  1819     0EE3  0821               	movf	strlen@s+1,w
  1820     0EE4  1C03               	skipc
  1821     0EE5  0A21               	incf	strlen@s+1,w
  1822     0EE6  0223               	subwf	strlen@cp+1,w
  1823     0EE7  00A1               	movwf	?_strlen+1
  1824     0EE8                     l721:
  1825     0EE8  0008               	return
  1826     0EE9                     __end_of_strlen:
  1827                           
  1828                           	psect	text7
  1829     0F4B                     __ptext7:	
  1830 ;; *************** function _lcd_data *****************
  1831 ;; Defined at:
  1832 ;;		line 123 in file "main.c"
  1833 ;; Parameters:    Size  Location     Type
  1834 ;;  data            1    wreg     unsigned char 
  1835 ;; Auto vars:     Size  Location     Type
  1836 ;;  data            1    2[BANK0 ] unsigned char 
  1837 ;; Return value:  Size  Location     Type
  1838 ;;                  1    wreg      void 
  1839 ;; Registers used:
  1840 ;;		wreg, status,2, status,0
  1841 ;; Tracked objects:
  1842 ;;		On entry : 0/0
  1843 ;;		On exit  : 0/0
  1844 ;;		Unchanged: 0/0
  1845 ;; Data sizes:     COMMON   BANK0   BANK1   BANK3   BANK2
  1846 ;;      Params:         0       0       0       0       0
  1847 ;;      Locals:         0       1       0       0       0
  1848 ;;      Temps:          0       2       0       0       0
  1849 ;;      Totals:         0       3       0       0       0
  1850 ;;Total ram usage:        3 bytes
  1851 ;; Hardware stack levels used: 1
  1852 ;; Hardware stack levels required when called: 1
  1853 ;; This function calls:
  1854 ;;		Nothing
  1855 ;; This function is called by:
  1856 ;;		_lcd_caracter
  1857 ;; This function uses a non-reentrant model
  1858 ;;
  1859                           
  1860     0F4B                     _lcd_data:	
  1861                           ;psect for function _lcd_data
  1862                           
  1863                           
  1864                           ;incstack = 0
  1865                           ; Regs used in _lcd_data: [wreg+status,2+status,0]
  1866                           ;lcd_data@data stored from wreg
  1867     0F4B  1283               	bcf	3,5	;RP0=0, select bank0
  1868     0F4C  1303               	bcf	3,6	;RP1=0, select bank0
  1869     0F4D  00A2               	movwf	lcd_data@data
  1870     0F4E                     l1407:
  1871                           
  1872                           ;main.c: 124: PORTB = (data & 0xF0);
  1873     0F4E  0822               	movf	lcd_data@data,w
  1874     0F4F  39F0               	andlw	240
  1875     0F50  0086               	movwf	6	;volatile
  1876     0F51                     l1409:
  1877                           
  1878                           ;main.c: 125: PORTBbits.RB2 = 1;
  1879     0F51  1506               	bsf	6,2	;volatile
  1880     0F52                     l1411:
  1881                           
  1882                           ;main.c: 126: PORTBbits.RB1 = 0;
  1883     0F52  1086               	bcf	6,1	;volatile
  1884     0F53                     l1413:
  1885                           
  1886                           ;main.c: 127: PORTBbits.RB0 = 1;
  1887     0F53  1406               	bsf	6,0	;volatile
  1888     0F54                     l1415:
  1889                           
  1890                           ;main.c: 128: _delay((unsigned long)((2)*(20000000/4000.0)));
  1891     0F54  300D               	movlw	13
  1892     0F55  1283               	bcf	3,5	;RP0=0, select bank0
  1893     0F56  1303               	bcf	3,6	;RP1=0, select bank0
  1894     0F57  00A1               	movwf	??_lcd_data+1
  1895     0F58  30FB               	movlw	251
  1896     0F59  00A0               	movwf	??_lcd_data
  1897     0F5A                     u2357:
  1898     0F5A  0BA0               	decfsz	??_lcd_data,f
  1899     0F5B  2F5A               	goto	u2357
  1900     0F5C  0BA1               	decfsz	??_lcd_data+1,f
  1901     0F5D  2F5A               	goto	u2357
  1902     0F5E                     l1417:
  1903                           
  1904                           ;main.c: 129: PORTBbits.RB2 = 0 ;
  1905     0F5E  1283               	bcf	3,5	;RP0=0, select bank0
  1906     0F5F  1303               	bcf	3,6	;RP1=0, select bank0
  1907     0F60  1106               	bcf	6,2	;volatile
  1908     0F61                     l1419:
  1909                           
  1910                           ;main.c: 130: PORTB = ((data<<4)& 0xF0);
  1911     0F61  0822               	movf	lcd_data@data,w
  1912     0F62  00A0               	movwf	??_lcd_data
  1913     0F63  3003               	movlw	3
  1914     0F64                     u1185:
  1915     0F64  1003               	clrc
  1916     0F65  0DA0               	rlf	??_lcd_data,f
  1917     0F66  3EFF               	addlw	-1
  1918     0F67  1D03               	skipz
  1919     0F68  2F64               	goto	u1185
  1920     0F69  1003               	clrc
  1921     0F6A  0D20               	rlf	??_lcd_data,w
  1922     0F6B  39F0               	andlw	240
  1923     0F6C  0086               	movwf	6	;volatile
  1924     0F6D                     l1421:
  1925                           
  1926                           ;main.c: 131: PORTBbits.RB2 = 1;
  1927     0F6D  1506               	bsf	6,2	;volatile
  1928     0F6E                     l1423:
  1929                           
  1930                           ;main.c: 132: PORTBbits.RB1 = 0;
  1931     0F6E  1086               	bcf	6,1	;volatile
  1932     0F6F                     l1425:
  1933                           
  1934                           ;main.c: 133: PORTBbits.RB0 = 1;
  1935     0F6F  1406               	bsf	6,0	;volatile
  1936     0F70                     l1427:
  1937                           
  1938                           ;main.c: 134: _delay((unsigned long)((2)*(20000000/4000.0)));
  1939     0F70  300D               	movlw	13
  1940     0F71  1283               	bcf	3,5	;RP0=0, select bank0
  1941     0F72  1303               	bcf	3,6	;RP1=0, select bank0
  1942     0F73  00A1               	movwf	??_lcd_data+1
  1943     0F74  30FB               	movlw	251
  1944     0F75  00A0               	movwf	??_lcd_data
  1945     0F76                     u2367:
  1946     0F76  0BA0               	decfsz	??_lcd_data,f
  1947     0F77  2F76               	goto	u2367
  1948     0F78  0BA1               	decfsz	??_lcd_data+1,f
  1949     0F79  2F76               	goto	u2367
  1950     0F7A                     l1429:
  1951                           
  1952                           ;main.c: 135: PORTBbits.RB2 = 0;
  1953     0F7A  1283               	bcf	3,5	;RP0=0, select bank0
  1954     0F7B  1303               	bcf	3,6	;RP1=0, select bank0
  1955     0F7C  1106               	bcf	6,2	;volatile
  1956     0F7D                     l112:
  1957     0F7D  0008               	return
  1958     0F7E                     __end_of_lcd_data:
  1959                           
  1960                           	psect	text8
  1961     0EA6                     __ptext8:	
  1962 ;; *************** function _lcd_init *****************
  1963 ;; Defined at:
  1964 ;;		line 137 in file "main.c"
  1965 ;; Parameters:    Size  Location     Type
  1966 ;;		None
  1967 ;; Auto vars:     Size  Location     Type
  1968 ;;		None
  1969 ;; Return value:  Size  Location     Type
  1970 ;;                  1    wreg      void 
  1971 ;; Registers used:
  1972 ;;		wreg, status,2, status,0, pclath, cstack
  1973 ;; Tracked objects:
  1974 ;;		On entry : 0/0
  1975 ;;		On exit  : 0/0
  1976 ;;		Unchanged: 0/0
  1977 ;; Data sizes:     COMMON   BANK0   BANK1   BANK3   BANK2
  1978 ;;      Params:         0       0       0       0       0
  1979 ;;      Locals:         0       0       0       0       0
  1980 ;;      Temps:          0       0       0       0       0
  1981 ;;      Totals:         0       0       0       0       0
  1982 ;;Total ram usage:        0 bytes
  1983 ;; Hardware stack levels used: 1
  1984 ;; Hardware stack levels required when called: 2
  1985 ;; This function calls:
  1986 ;;		_lcd_cmd
  1987 ;; This function is called by:
  1988 ;;		_main
  1989 ;; This function uses a non-reentrant model
  1990 ;;
  1991                           
  1992     0EA6                     _lcd_init:	
  1993                           ;psect for function _lcd_init
  1994                           
  1995     0EA6                     l1593:	
  1996                           ;incstack = 0
  1997                           ; Regs used in _lcd_init: [wreg+status,2+status,0+pclath+cstack]
  1998                           
  1999                           
  2000                           ;main.c: 138: lcd_cmd(0x02);
  2001     0EA6  3002               	movlw	2
  2002     0EA7  120A  158A  2718  120A  158A  	fcall	_lcd_cmd
  2003                           
  2004                           ;main.c: 139: lcd_cmd(0x28);
  2005     0EAC  3028               	movlw	40
  2006     0EAD  120A  158A  2718  120A  158A  	fcall	_lcd_cmd
  2007                           
  2008                           ;main.c: 140: lcd_cmd(0x0C);
  2009     0EB2  300C               	movlw	12
  2010     0EB3  120A  158A  2718  120A  158A  	fcall	_lcd_cmd
  2011                           
  2012                           ;main.c: 141: lcd_cmd(0x04);
  2013     0EB8  3004               	movlw	4
  2014     0EB9  120A  158A  2718  120A  158A  	fcall	_lcd_cmd
  2015                           
  2016                           ;main.c: 142: lcd_cmd(0x01);
  2017     0EBE  3001               	movlw	1
  2018     0EBF  120A  158A  2718  120A  158A  	fcall	_lcd_cmd
  2019     0EC4                     l115:
  2020     0EC4  0008               	return
  2021     0EC5                     __end_of_lcd_init:
  2022                           
  2023                           	psect	text9
  2024     0F18                     __ptext9:	
  2025 ;; *************** function _lcd_cmd *****************
  2026 ;; Defined at:
  2027 ;;		line 108 in file "main.c"
  2028 ;; Parameters:    Size  Location     Type
  2029 ;;  cmd             1    wreg     unsigned char 
  2030 ;; Auto vars:     Size  Location     Type
  2031 ;;  cmd             1    2[BANK0 ] unsigned char 
  2032 ;; Return value:  Size  Location     Type
  2033 ;;                  1    wreg      void 
  2034 ;; Registers used:
  2035 ;;		wreg, status,2, status,0
  2036 ;; Tracked objects:
  2037 ;;		On entry : 0/0
  2038 ;;		On exit  : 0/0
  2039 ;;		Unchanged: 0/0
  2040 ;; Data sizes:     COMMON   BANK0   BANK1   BANK3   BANK2
  2041 ;;      Params:         0       0       0       0       0
  2042 ;;      Locals:         0       1       0       0       0
  2043 ;;      Temps:          0       2       0       0       0
  2044 ;;      Totals:         0       3       0       0       0
  2045 ;;Total ram usage:        3 bytes
  2046 ;; Hardware stack levels used: 1
  2047 ;; Hardware stack levels required when called: 1
  2048 ;; This function calls:
  2049 ;;		Nothing
  2050 ;; This function is called by:
  2051 ;;		_main
  2052 ;;		_lcd_init
  2053 ;; This function uses a non-reentrant model
  2054 ;;
  2055                           
  2056     0F18                     _lcd_cmd:	
  2057                           ;psect for function _lcd_cmd
  2058                           
  2059                           
  2060                           ;incstack = 0
  2061                           ; Regs used in _lcd_cmd: [wreg+status,2+status,0]
  2062                           ;lcd_cmd@cmd stored from wreg
  2063     0F18  1283               	bcf	3,5	;RP0=0, select bank0
  2064     0F19  1303               	bcf	3,6	;RP1=0, select bank0
  2065     0F1A  00A2               	movwf	lcd_cmd@cmd
  2066     0F1B                     l1489:
  2067                           
  2068                           ;main.c: 110: PORTB = (cmd & 0xF0);
  2069     0F1B  0822               	movf	lcd_cmd@cmd,w
  2070     0F1C  39F0               	andlw	240
  2071     0F1D  0086               	movwf	6	;volatile
  2072     0F1E                     l1491:
  2073                           
  2074                           ;main.c: 111: PORTBbits.RB2 = 1;
  2075     0F1E  1506               	bsf	6,2	;volatile
  2076     0F1F                     l1493:
  2077                           
  2078                           ;main.c: 112: PORTBbits.RB1 = 0;
  2079     0F1F  1086               	bcf	6,1	;volatile
  2080     0F20                     l1495:
  2081                           
  2082                           ;main.c: 113: PORTBbits.RB0 = 0;
  2083     0F20  1006               	bcf	6,0	;volatile
  2084     0F21                     l1497:
  2085                           
  2086                           ;main.c: 114: _delay((unsigned long)((2)*(20000000/4000.0)));
  2087     0F21  300D               	movlw	13
  2088     0F22  1283               	bcf	3,5	;RP0=0, select bank0
  2089     0F23  1303               	bcf	3,6	;RP1=0, select bank0
  2090     0F24  00A1               	movwf	??_lcd_cmd+1
  2091     0F25  30FB               	movlw	251
  2092     0F26  00A0               	movwf	??_lcd_cmd
  2093     0F27                     u2377:
  2094     0F27  0BA0               	decfsz	??_lcd_cmd,f
  2095     0F28  2F27               	goto	u2377
  2096     0F29  0BA1               	decfsz	??_lcd_cmd+1,f
  2097     0F2A  2F27               	goto	u2377
  2098     0F2B                     l1499:
  2099                           
  2100                           ;main.c: 115: PORTBbits.RB2 = 0 ;
  2101     0F2B  1283               	bcf	3,5	;RP0=0, select bank0
  2102     0F2C  1303               	bcf	3,6	;RP1=0, select bank0
  2103     0F2D  1106               	bcf	6,2	;volatile
  2104     0F2E                     l1501:
  2105                           
  2106                           ;main.c: 116: PORTB = ((cmd<<4)& 0xF0);
  2107     0F2E  0822               	movf	lcd_cmd@cmd,w
  2108     0F2F  00A0               	movwf	??_lcd_cmd
  2109     0F30  3003               	movlw	3
  2110     0F31                     u1335:
  2111     0F31  1003               	clrc
  2112     0F32  0DA0               	rlf	??_lcd_cmd,f
  2113     0F33  3EFF               	addlw	-1
  2114     0F34  1D03               	skipz
  2115     0F35  2F31               	goto	u1335
  2116     0F36  1003               	clrc
  2117     0F37  0D20               	rlf	??_lcd_cmd,w
  2118     0F38  39F0               	andlw	240
  2119     0F39  0086               	movwf	6	;volatile
  2120     0F3A                     l1503:
  2121                           
  2122                           ;main.c: 117: PORTBbits.RB2 = 1;
  2123     0F3A  1506               	bsf	6,2	;volatile
  2124     0F3B                     l1505:
  2125                           
  2126                           ;main.c: 118: PORTBbits.RB1 = 0;
  2127     0F3B  1086               	bcf	6,1	;volatile
  2128     0F3C                     l1507:
  2129                           
  2130                           ;main.c: 119: PORTBbits.RB0 = 0;
  2131     0F3C  1006               	bcf	6,0	;volatile
  2132     0F3D                     l1509:
  2133                           
  2134                           ;main.c: 120: _delay((unsigned long)((2)*(20000000/4000.0)));
  2135     0F3D  300D               	movlw	13
  2136     0F3E  1283               	bcf	3,5	;RP0=0, select bank0
  2137     0F3F  1303               	bcf	3,6	;RP1=0, select bank0
  2138     0F40  00A1               	movwf	??_lcd_cmd+1
  2139     0F41  30FB               	movlw	251
  2140     0F42  00A0               	movwf	??_lcd_cmd
  2141     0F43                     u2387:
  2142     0F43  0BA0               	decfsz	??_lcd_cmd,f
  2143     0F44  2F43               	goto	u2387
  2144     0F45  0BA1               	decfsz	??_lcd_cmd+1,f
  2145     0F46  2F43               	goto	u2387
  2146     0F47                     l1511:
  2147                           
  2148                           ;main.c: 121: PORTBbits.RB2 = 0;
  2149     0F47  1283               	bcf	3,5	;RP0=0, select bank0
  2150     0F48  1303               	bcf	3,6	;RP1=0, select bank0
  2151     0F49  1106               	bcf	6,2	;volatile
  2152     0F4A                     l109:
  2153     0F4A  0008               	return
  2154     0F4B                     __end_of_lcd_cmd:
  2155                           
  2156                           	psect	text10
  2157     0E88                     __ptext10:	
  2158 ;; *************** function _int_Port *****************
  2159 ;; Defined at:
  2160 ;;		line 65 in file "main.c"
  2161 ;; Parameters:    Size  Location     Type
  2162 ;;		None
  2163 ;; Auto vars:     Size  Location     Type
  2164 ;;		None
  2165 ;; Return value:  Size  Location     Type
  2166 ;;                  1    wreg      void 
  2167 ;; Registers used:
  2168 ;;		wreg, status,2
  2169 ;; Tracked objects:
  2170 ;;		On entry : 0/0
  2171 ;;		On exit  : 0/0
  2172 ;;		Unchanged: 0/0
  2173 ;; Data sizes:     COMMON   BANK0   BANK1   BANK3   BANK2
  2174 ;;      Params:         0       0       0       0       0
  2175 ;;      Locals:         0       0       0       0       0
  2176 ;;      Temps:          0       0       0       0       0
  2177 ;;      Totals:         0       0       0       0       0
  2178 ;;Total ram usage:        0 bytes
  2179 ;; Hardware stack levels used: 1
  2180 ;; Hardware stack levels required when called: 1
  2181 ;; This function calls:
  2182 ;;		Nothing
  2183 ;; This function is called by:
  2184 ;;		_main
  2185 ;; This function uses a non-reentrant model
  2186 ;;
  2187                           
  2188     0E88                     _int_Port:	
  2189                           ;psect for function _int_Port
  2190                           
  2191     0E88                     l1583:	
  2192                           ;incstack = 0
  2193                           ; Regs used in _int_Port: [wreg+status,2]
  2194                           
  2195                           
  2196                           ;main.c: 66: TRISB = 0x00;
  2197     0E88  1683               	bsf	3,5	;RP0=1, select bank1
  2198     0E89  1303               	bcf	3,6	;RP1=0, select bank1
  2199     0E8A  0186               	clrf	6	;volatile
  2200     0E8B                     l1585:
  2201                           
  2202                           ;main.c: 67: TRISA = 0xFF;
  2203     0E8B  30FF               	movlw	255
  2204     0E8C  0085               	movwf	5	;volatile
  2205     0E8D                     l1587:
  2206                           
  2207                           ;main.c: 68: TRISE =0xFF;
  2208     0E8D  30FF               	movlw	255
  2209     0E8E  0089               	movwf	9	;volatile
  2210     0E8F                     l85:
  2211     0E8F  0008               	return
  2212     0E90                     __end_of_int_Port:
  2213                           
  2214                           	psect	text11
  2215     0E98                     __ptext11:	
  2216 ;; *************** function _int_ADC *****************
  2217 ;; Defined at:
  2218 ;;		line 70 in file "main.c"
  2219 ;; Parameters:    Size  Location     Type
  2220 ;;		None
  2221 ;; Auto vars:     Size  Location     Type
  2222 ;;		None
  2223 ;; Return value:  Size  Location     Type
  2224 ;;                  1    wreg      void 
  2225 ;; Registers used:
  2226 ;;		wreg
  2227 ;; Tracked objects:
  2228 ;;		On entry : 0/0
  2229 ;;		On exit  : 0/0
  2230 ;;		Unchanged: 0/0
  2231 ;; Data sizes:     COMMON   BANK0   BANK1   BANK3   BANK2
  2232 ;;      Params:         0       0       0       0       0
  2233 ;;      Locals:         0       0       0       0       0
  2234 ;;      Temps:          0       0       0       0       0
  2235 ;;      Totals:         0       0       0       0       0
  2236 ;;Total ram usage:        0 bytes
  2237 ;; Hardware stack levels used: 1
  2238 ;; Hardware stack levels required when called: 1
  2239 ;; This function calls:
  2240 ;;		Nothing
  2241 ;; This function is called by:
  2242 ;;		_main
  2243 ;; This function uses a non-reentrant model
  2244 ;;
  2245                           
  2246     0E98                     _int_ADC:	
  2247                           ;psect for function _int_ADC
  2248                           
  2249     0E98                     l1589:	
  2250                           ;incstack = 0
  2251                           ; Regs used in _int_ADC: [wreg]
  2252                           
  2253                           
  2254                           ;main.c: 71: INTCONbits.GIE = 1;
  2255     0E98  178B               	bsf	11,7	;volatile
  2256                           
  2257                           ;main.c: 72: INTCONbits.PEIE = 1;
  2258     0E99  170B               	bsf	11,6	;volatile
  2259                           
  2260                           ;main.c: 73: PIE1bits.ADIE = 1 ;
  2261     0E9A  1683               	bsf	3,5	;RP0=1, select bank1
  2262     0E9B  1303               	bcf	3,6	;RP1=0, select bank1
  2263     0E9C  170C               	bsf	12,6	;volatile
  2264     0E9D                     l1591:
  2265                           
  2266                           ;main.c: 74: ADCON0 = 0x41 ;
  2267     0E9D  3041               	movlw	65
  2268     0E9E  1283               	bcf	3,5	;RP0=0, select bank0
  2269     0E9F  1303               	bcf	3,6	;RP1=0, select bank0
  2270     0EA0  009F               	movwf	31	;volatile
  2271                           
  2272                           ;main.c: 75: ADCON1 = 0x80 ;
  2273     0EA1  3080               	movlw	128
  2274     0EA2  1683               	bsf	3,5	;RP0=1, select bank1
  2275     0EA3  1303               	bcf	3,6	;RP1=0, select bank1
  2276     0EA4  009F               	movwf	31	;volatile
  2277     0EA5                     l88:
  2278     0EA5  0008               	return
  2279     0EA6                     __end_of_int_ADC:
  2280                           
  2281                           	psect	text12
  2282     05F0                     __ptext12:	
  2283 ;; *************** function ___xxtofl *****************
  2284 ;; Defined at:
  2285 ;;		line 10 in file "C:\Program Files\Microchip\xc8\v2.41\pic\sources\c90\common\xxtofl.c"
  2286 ;; Parameters:    Size  Location     Type
  2287 ;;  sign            1    wreg     unsigned char 
  2288 ;;  val             4    0[BANK0 ] long 
  2289 ;; Auto vars:     Size  Location     Type
  2290 ;;  sign            1    8[BANK0 ] unsigned char 
  2291 ;;  arg             4   10[BANK0 ] unsigned long 
  2292 ;;  exp             1    9[BANK0 ] unsigned char 
  2293 ;; Return value:  Size  Location     Type
  2294 ;;                  4    0[BANK0 ] unsigned char 
  2295 ;; Registers used:
  2296 ;;		wreg, status,2, status,0, btemp+1
  2297 ;; Tracked objects:
  2298 ;;		On entry : 0/0
  2299 ;;		On exit  : 0/0
  2300 ;;		Unchanged: 0/0
  2301 ;; Data sizes:     COMMON   BANK0   BANK1   BANK3   BANK2
  2302 ;;      Params:         0       4       0       0       0
  2303 ;;      Locals:         0       6       0       0       0
  2304 ;;      Temps:          0       4       0       0       0
  2305 ;;      Totals:         0      14       0       0       0
  2306 ;;Total ram usage:       14 bytes
  2307 ;; Hardware stack levels used: 1
  2308 ;; Hardware stack levels required when called: 1
  2309 ;; This function calls:
  2310 ;;		Nothing
  2311 ;; This function is called by:
  2312 ;;		_main
  2313 ;; This function uses a non-reentrant model
  2314 ;;
  2315                           
  2316     05F0                     ___xxtofl:	
  2317                           ;psect for function ___xxtofl
  2318                           
  2319                           
  2320                           ;incstack = 0
  2321                           ; Regs used in ___xxtofl: [wreg+status,2+status,0+btemp+1]
  2322                           ;___xxtofl@sign stored from wreg
  2323     05F0  1283               	bcf	3,5	;RP0=0, select bank0
  2324     05F1  1303               	bcf	3,6	;RP1=0, select bank0
  2325     05F2  00A8               	movwf	___xxtofl@sign
  2326     05F3                     l1815:
  2327     05F3  0828               	movf	___xxtofl@sign,w
  2328     05F4  1903               	btfsc	3,2
  2329     05F5  2DF7               	goto	u1891
  2330     05F6  2DF8               	goto	u1890
  2331     05F7                     u1891:
  2332     05F7  2E0C               	goto	l1821
  2333     05F8                     u1890:
  2334     05F8                     l1817:
  2335     05F8  1FA3               	btfss	___xxtofl@val+3,7
  2336     05F9  2DFB               	goto	u1901
  2337     05FA  2DFC               	goto	u1900
  2338     05FB                     u1901:
  2339     05FB  2E0C               	goto	l1821
  2340     05FC                     u1900:
  2341     05FC                     l1819:
  2342     05FC  0920               	comf	___xxtofl@val,w
  2343     05FD  00AA               	movwf	___xxtofl@arg
  2344     05FE  0921               	comf	___xxtofl@val+1,w
  2345     05FF  00AB               	movwf	___xxtofl@arg+1
  2346     0600  0922               	comf	___xxtofl@val+2,w
  2347     0601  00AC               	movwf	___xxtofl@arg+2
  2348     0602  0923               	comf	___xxtofl@val+3,w
  2349     0603  00AD               	movwf	___xxtofl@arg+3
  2350     0604  0AAA               	incf	___xxtofl@arg,f
  2351     0605  1903               	skipnz
  2352     0606  0AAB               	incf	___xxtofl@arg+1,f
  2353     0607  1903               	skipnz
  2354     0608  0AAC               	incf	___xxtofl@arg+2,f
  2355     0609  1903               	skipnz
  2356     060A  0AAD               	incf	___xxtofl@arg+3,f
  2357     060B  2E14               	goto	l700
  2358     060C                     l1821:
  2359     060C  0823               	movf	___xxtofl@val+3,w
  2360     060D  00AD               	movwf	___xxtofl@arg+3
  2361     060E  0822               	movf	___xxtofl@val+2,w
  2362     060F  00AC               	movwf	___xxtofl@arg+2
  2363     0610  0821               	movf	___xxtofl@val+1,w
  2364     0611  00AB               	movwf	___xxtofl@arg+1
  2365     0612  0820               	movf	___xxtofl@val,w
  2366     0613  00AA               	movwf	___xxtofl@arg
  2367     0614                     l700:
  2368     0614  0823               	movf	___xxtofl@val+3,w
  2369     0615  0422               	iorwf	___xxtofl@val+2,w
  2370     0616  0421               	iorwf	___xxtofl@val+1,w
  2371     0617  0420               	iorwf	___xxtofl@val,w
  2372     0618  1D03               	skipz
  2373     0619  2E1B               	goto	u1911
  2374     061A  2E1C               	goto	u1910
  2375     061B                     u1911:
  2376     061B  2E25               	goto	l1827
  2377     061C                     u1910:
  2378     061C                     l1823:
  2379     061C  3000               	movlw	0
  2380     061D  00A3               	movwf	?___xxtofl+3
  2381     061E  3000               	movlw	0
  2382     061F  00A2               	movwf	?___xxtofl+2
  2383     0620  3000               	movlw	0
  2384     0621  00A1               	movwf	?___xxtofl+1
  2385     0622  3000               	movlw	0
  2386     0623  00A0               	movwf	?___xxtofl
  2387     0624  2EA9               	goto	l702
  2388     0625                     l1827:
  2389     0625  3096               	movlw	150
  2390     0626  00A9               	movwf	___xxtofl@exp
  2391     0627  2E35               	goto	l1833
  2392     0628                     l1829:
  2393     0628  3001               	movlw	1
  2394     0629  00FF               	movwf	btemp+1
  2395     062A  087F               	movf	btemp+1,w
  2396     062B  07A9               	addwf	___xxtofl@exp,f
  2397     062C                     l1831:
  2398     062C  3001               	movlw	1
  2399     062D                     u1925:
  2400     062D  1003               	clrc
  2401     062E  0CAD               	rrf	___xxtofl@arg+3,f
  2402     062F  0CAC               	rrf	___xxtofl@arg+2,f
  2403     0630  0CAB               	rrf	___xxtofl@arg+1,f
  2404     0631  0CAA               	rrf	___xxtofl@arg,f
  2405     0632  3EFF               	addlw	-1
  2406     0633  1D03               	skipz
  2407     0634  2E2D               	goto	u1925
  2408     0635                     l1833:
  2409     0635  30FE               	movlw	254
  2410     0636  052D               	andwf	___xxtofl@arg+3,w
  2411     0637  1D03               	btfss	3,2
  2412     0638  2E3A               	goto	u1931
  2413     0639  2E3B               	goto	u1930
  2414     063A                     u1931:
  2415     063A  2E28               	goto	l1829
  2416     063B                     u1930:
  2417     063B  2E57               	goto	l1841
  2418     063C                     l1835:
  2419     063C  3001               	movlw	1
  2420     063D  00FF               	movwf	btemp+1
  2421     063E  087F               	movf	btemp+1,w
  2422     063F  07A9               	addwf	___xxtofl@exp,f
  2423     0640                     l1837:
  2424     0640  3001               	movlw	1
  2425     0641  07AA               	addwf	___xxtofl@arg,f
  2426     0642  3000               	movlw	0
  2427     0643  1803               	skipnc
  2428     0644  3001               	movlw	1
  2429     0645  07AB               	addwf	___xxtofl@arg+1,f
  2430     0646  3000               	movlw	0
  2431     0647  1803               	skipnc
  2432     0648  3001               	movlw	1
  2433     0649  07AC               	addwf	___xxtofl@arg+2,f
  2434     064A  3000               	movlw	0
  2435     064B  1803               	skipnc
  2436     064C  3001               	movlw	1
  2437     064D  07AD               	addwf	___xxtofl@arg+3,f
  2438     064E                     l1839:
  2439     064E  3001               	movlw	1
  2440     064F                     u1945:
  2441     064F  1003               	clrc
  2442     0650  0CAD               	rrf	___xxtofl@arg+3,f
  2443     0651  0CAC               	rrf	___xxtofl@arg+2,f
  2444     0652  0CAB               	rrf	___xxtofl@arg+1,f
  2445     0653  0CAA               	rrf	___xxtofl@arg,f
  2446     0654  3EFF               	addlw	-1
  2447     0655  1D03               	skipz
  2448     0656  2E4F               	goto	u1945
  2449     0657                     l1841:
  2450     0657  30FF               	movlw	255
  2451     0658  052D               	andwf	___xxtofl@arg+3,w
  2452     0659  1D03               	btfss	3,2
  2453     065A  2E5C               	goto	u1951
  2454     065B  2E5D               	goto	u1950
  2455     065C                     u1951:
  2456     065C  2E3C               	goto	l1835
  2457     065D                     u1950:
  2458     065D  2E69               	goto	l1845
  2459     065E                     l1843:
  2460     065E  3001               	movlw	1
  2461     065F  02A9               	subwf	___xxtofl@exp,f
  2462     0660  3001               	movlw	1
  2463     0661  00A4               	movwf	??___xxtofl
  2464     0662                     u1965:
  2465     0662  1003               	clrc
  2466     0663  0DAA               	rlf	___xxtofl@arg,f
  2467     0664  0DAB               	rlf	___xxtofl@arg+1,f
  2468     0665  0DAC               	rlf	___xxtofl@arg+2,f
  2469     0666  0DAD               	rlf	___xxtofl@arg+3,f
  2470     0667  0BA4               	decfsz	??___xxtofl,f
  2471     0668  2E62               	goto	u1965
  2472     0669                     l1845:
  2473     0669  1BAC               	btfsc	___xxtofl@arg+2,7
  2474     066A  2E6C               	goto	u1971
  2475     066B  2E6D               	goto	u1970
  2476     066C                     u1971:
  2477     066C  2E73               	goto	l713
  2478     066D                     u1970:
  2479     066D                     l1847:
  2480     066D  3002               	movlw	2
  2481     066E  0229               	subwf	___xxtofl@exp,w
  2482     066F  1803               	skipnc
  2483     0670  2E72               	goto	u1981
  2484     0671  2E73               	goto	u1980
  2485     0672                     u1981:
  2486     0672  2E5E               	goto	l1843
  2487     0673                     u1980:
  2488     0673                     l713:
  2489     0673  1829               	btfsc	___xxtofl@exp,0
  2490     0674  2E76               	goto	u1991
  2491     0675  2E77               	goto	u1990
  2492     0676                     u1991:
  2493     0676  2E7F               	goto	l714
  2494     0677                     u1990:
  2495     0677                     l1849:
  2496     0677  30FF               	movlw	255
  2497     0678  05AA               	andwf	___xxtofl@arg,f
  2498     0679  30FF               	movlw	255
  2499     067A  05AB               	andwf	___xxtofl@arg+1,f
  2500     067B  307F               	movlw	127
  2501     067C  05AC               	andwf	___xxtofl@arg+2,f
  2502     067D  30FF               	movlw	255
  2503     067E  05AD               	andwf	___xxtofl@arg+3,f
  2504     067F                     l714:
  2505     067F  1003               	clrc
  2506     0680  0CA9               	rrf	___xxtofl@exp,f
  2507     0681                     l1851:
  2508     0681  0829               	movf	___xxtofl@exp,w
  2509     0682  00A4               	movwf	??___xxtofl
  2510     0683  01A5               	clrf	??___xxtofl+1
  2511     0684  01A6               	clrf	??___xxtofl+2
  2512     0685  01A7               	clrf	??___xxtofl+3
  2513     0686  3018               	movlw	24
  2514     0687                     u2005:
  2515     0687  1003               	clrc
  2516     0688  0DA4               	rlf	??___xxtofl,f
  2517     0689  0DA5               	rlf	??___xxtofl+1,f
  2518     068A  0DA6               	rlf	??___xxtofl+2,f
  2519     068B  0DA7               	rlf	??___xxtofl+3,f
  2520     068C                     u2000:
  2521     068C  3EFF               	addlw	-1
  2522     068D  1D03               	skipz
  2523     068E  2E87               	goto	u2005
  2524     068F  0824               	movf	??___xxtofl,w
  2525     0690  04AA               	iorwf	___xxtofl@arg,f
  2526     0691  0825               	movf	??___xxtofl+1,w
  2527     0692  04AB               	iorwf	___xxtofl@arg+1,f
  2528     0693  0826               	movf	??___xxtofl+2,w
  2529     0694  04AC               	iorwf	___xxtofl@arg+2,f
  2530     0695  0827               	movf	??___xxtofl+3,w
  2531     0696  04AD               	iorwf	___xxtofl@arg+3,f
  2532     0697                     l1853:
  2533     0697  0828               	movf	___xxtofl@sign,w
  2534     0698  1903               	btfsc	3,2
  2535     0699  2E9B               	goto	u2011
  2536     069A  2E9C               	goto	u2010
  2537     069B                     u2011:
  2538     069B  2EA1               	goto	l1859
  2539     069C                     u2010:
  2540     069C                     l1855:
  2541     069C  1FA3               	btfss	___xxtofl@val+3,7
  2542     069D  2E9F               	goto	u2021
  2543     069E  2EA0               	goto	u2020
  2544     069F                     u2021:
  2545     069F  2EA1               	goto	l1859
  2546     06A0                     u2020:
  2547     06A0                     l1857:
  2548     06A0  17AD               	bsf	___xxtofl@arg+3,7
  2549     06A1                     l1859:
  2550     06A1  082D               	movf	___xxtofl@arg+3,w
  2551     06A2  00A3               	movwf	?___xxtofl+3
  2552     06A3  082C               	movf	___xxtofl@arg+2,w
  2553     06A4  00A2               	movwf	?___xxtofl+2
  2554     06A5  082B               	movf	___xxtofl@arg+1,w
  2555     06A6  00A1               	movwf	?___xxtofl+1
  2556     06A7  082A               	movf	___xxtofl@arg,w
  2557     06A8  00A0               	movwf	?___xxtofl
  2558     06A9                     l702:
  2559     06A9  0008               	return
  2560     06AA                     __end_of___xxtofl:
  2561                           
  2562                           	psect	text13
  2563     06AA                     __ptext13:	
  2564 ;; *************** function ___fltol *****************
  2565 ;; Defined at:
  2566 ;;		line 43 in file "C:\Program Files\Microchip\xc8\v2.41\pic\sources\c90\common\fltol.c"
  2567 ;; Parameters:    Size  Location     Type
  2568 ;;  f1              4   40[BANK0 ] unsigned char 
  2569 ;; Auto vars:     Size  Location     Type
  2570 ;;  exp1            1   49[BANK0 ] unsigned char 
  2571 ;;  sign1           1   48[BANK0 ] unsigned char 
  2572 ;; Return value:  Size  Location     Type
  2573 ;;                  4   40[BANK0 ] long 
  2574 ;; Registers used:
  2575 ;;		wreg, status,2, status,0, btemp+1
  2576 ;; Tracked objects:
  2577 ;;		On entry : 0/0
  2578 ;;		On exit  : 0/0
  2579 ;;		Unchanged: 0/0
  2580 ;; Data sizes:     COMMON   BANK0   BANK1   BANK3   BANK2
  2581 ;;      Params:         0       4       0       0       0
  2582 ;;      Locals:         0       2       0       0       0
  2583 ;;      Temps:          0       4       0       0       0
  2584 ;;      Totals:         0      10       0       0       0
  2585 ;;Total ram usage:       10 bytes
  2586 ;; Hardware stack levels used: 1
  2587 ;; Hardware stack levels required when called: 1
  2588 ;; This function calls:
  2589 ;;		Nothing
  2590 ;; This function is called by:
  2591 ;;		_main
  2592 ;; This function uses a non-reentrant model
  2593 ;;
  2594                           
  2595     06AA                     ___fltol:	
  2596                           ;psect for function ___fltol
  2597                           
  2598     06AA                     l1631:	
  2599                           ;incstack = 0
  2600                           ; Regs used in ___fltol: [wreg+status,2+status,0+btemp+1]
  2601                           
  2602     06AA  1003               	clrc
  2603     06AB  1283               	bcf	3,5	;RP0=0, select bank0
  2604     06AC  1303               	bcf	3,6	;RP1=0, select bank0
  2605     06AD  0D4A               	rlf	___fltol@f1+2,w
  2606     06AE  0D4B               	rlf	___fltol@f1+3,w
  2607     06AF  00D1               	movwf	___fltol@exp1
  2608     06B0  0851               	movf	___fltol@exp1,w
  2609     06B1  1D03               	btfss	3,2
  2610     06B2  2EB4               	goto	u1501
  2611     06B3  2EB5               	goto	u1500
  2612     06B4                     u1501:
  2613     06B4  2EBE               	goto	l1637
  2614     06B5                     u1500:
  2615     06B5                     l1633:
  2616     06B5  3000               	movlw	0
  2617     06B6  00CB               	movwf	?___fltol+3
  2618     06B7  3000               	movlw	0
  2619     06B8  00CA               	movwf	?___fltol+2
  2620     06B9  3000               	movlw	0
  2621     06BA  00C9               	movwf	?___fltol+1
  2622     06BB  3000               	movlw	0
  2623     06BC  00C8               	movwf	?___fltol
  2624     06BD  2F21               	goto	l453
  2625     06BE                     l1637:
  2626     06BE  0848               	movf	___fltol@f1,w
  2627     06BF  00CC               	movwf	??___fltol
  2628     06C0  0849               	movf	___fltol@f1+1,w
  2629     06C1  00CD               	movwf	??___fltol+1
  2630     06C2  084A               	movf	___fltol@f1+2,w
  2631     06C3  00CE               	movwf	??___fltol+2
  2632     06C4  084B               	movf	___fltol@f1+3,w
  2633     06C5  00CF               	movwf	??___fltol+3
  2634     06C6  301F               	movlw	31
  2635     06C7                     u1515:
  2636     06C7  1003               	clrc
  2637     06C8  0CCF               	rrf	??___fltol+3,f
  2638     06C9  0CCE               	rrf	??___fltol+2,f
  2639     06CA  0CCD               	rrf	??___fltol+1,f
  2640     06CB  0CCC               	rrf	??___fltol,f
  2641     06CC                     u1510:
  2642     06CC  3EFF               	addlw	-1
  2643     06CD  1D03               	skipz
  2644     06CE  2EC7               	goto	u1515
  2645     06CF  084C               	movf	??___fltol,w
  2646     06D0  00D0               	movwf	___fltol@sign1
  2647     06D1                     l1639:
  2648     06D1  17CA               	bsf	___fltol@f1+2,7
  2649     06D2                     l1641:
  2650     06D2  30FF               	movlw	255
  2651     06D3  05C8               	andwf	___fltol@f1,f
  2652     06D4  30FF               	movlw	255
  2653     06D5  05C9               	andwf	___fltol@f1+1,f
  2654     06D6  30FF               	movlw	255
  2655     06D7  05CA               	andwf	___fltol@f1+2,f
  2656     06D8  3000               	movlw	0
  2657     06D9  05CB               	andwf	___fltol@f1+3,f
  2658     06DA                     l1643:
  2659     06DA  3096               	movlw	150
  2660     06DB  02D1               	subwf	___fltol@exp1,f
  2661     06DC                     l1645:
  2662     06DC  1FD1               	btfss	___fltol@exp1,7
  2663     06DD  2EDF               	goto	u1521
  2664     06DE  2EE0               	goto	u1520
  2665     06DF                     u1521:
  2666     06DF  2EFA               	goto	l1657
  2667     06E0                     u1520:
  2668     06E0                     l1647:
  2669     06E0  0851               	movf	___fltol@exp1,w
  2670     06E1  3A80               	xorlw	128
  2671     06E2  3E97               	addlw	151
  2672     06E3  1803               	skipnc
  2673     06E4  2EE6               	goto	u1531
  2674     06E5  2EE7               	goto	u1530
  2675     06E6                     u1531:
  2676     06E6  2EE8               	goto	l1653
  2677     06E7                     u1530:
  2678     06E7  2EB5               	goto	l1633
  2679     06E8                     l1653:
  2680     06E8  3001               	movlw	1
  2681     06E9                     u1545:
  2682     06E9  1003               	clrc
  2683     06EA  0CCB               	rrf	___fltol@f1+3,f
  2684     06EB  0CCA               	rrf	___fltol@f1+2,f
  2685     06EC  0CC9               	rrf	___fltol@f1+1,f
  2686     06ED  0CC8               	rrf	___fltol@f1,f
  2687     06EE  3EFF               	addlw	-1
  2688     06EF  1D03               	skipz
  2689     06F0  2EE9               	goto	u1545
  2690     06F1                     l1655:
  2691     06F1  3001               	movlw	1
  2692     06F2  00FF               	movwf	btemp+1
  2693     06F3  087F               	movf	btemp+1,w
  2694     06F4  07D1               	addwf	___fltol@exp1,f
  2695     06F5  1D03               	btfss	3,2
  2696     06F6  2EF8               	goto	u1551
  2697     06F7  2EF9               	goto	u1550
  2698     06F8                     u1551:
  2699     06F8  2EE8               	goto	l1653
  2700     06F9                     u1550:
  2701     06F9  2F11               	goto	l1665
  2702     06FA                     l1657:
  2703     06FA  3020               	movlw	32
  2704     06FB  0251               	subwf	___fltol@exp1,w
  2705     06FC  1C03               	skipc
  2706     06FD  2EFF               	goto	u1561
  2707     06FE  2F00               	goto	u1560
  2708     06FF                     u1561:
  2709     06FF  2F0C               	goto	l460
  2710     0700                     u1560:
  2711     0700  2EB5               	goto	l1633
  2712     0701                     l1663:
  2713     0701  3001               	movlw	1
  2714     0702  00CC               	movwf	??___fltol
  2715     0703                     u1575:
  2716     0703  1003               	clrc
  2717     0704  0DC8               	rlf	___fltol@f1,f
  2718     0705  0DC9               	rlf	___fltol@f1+1,f
  2719     0706  0DCA               	rlf	___fltol@f1+2,f
  2720     0707  0DCB               	rlf	___fltol@f1+3,f
  2721     0708  0BCC               	decfsz	??___fltol,f
  2722     0709  2F03               	goto	u1575
  2723     070A  3001               	movlw	1
  2724     070B  02D1               	subwf	___fltol@exp1,f
  2725     070C                     l460:
  2726     070C  0851               	movf	___fltol@exp1,w
  2727     070D  1D03               	btfss	3,2
  2728     070E  2F10               	goto	u1581
  2729     070F  2F11               	goto	u1580
  2730     0710                     u1581:
  2731     0710  2F01               	goto	l1663
  2732     0711                     u1580:
  2733     0711                     l1665:
  2734     0711  0850               	movf	___fltol@sign1,w
  2735     0712  1903               	btfsc	3,2
  2736     0713  2F15               	goto	u1591
  2737     0714  2F16               	goto	u1590
  2738     0715                     u1591:
  2739     0715  2F21               	goto	l463
  2740     0716                     u1590:
  2741     0716                     l1667:
  2742     0716  09C8               	comf	___fltol@f1,f
  2743     0717  09C9               	comf	___fltol@f1+1,f
  2744     0718  09CA               	comf	___fltol@f1+2,f
  2745     0719  09CB               	comf	___fltol@f1+3,f
  2746     071A  0AC8               	incf	___fltol@f1,f
  2747     071B  1903               	skipnz
  2748     071C  0AC9               	incf	___fltol@f1+1,f
  2749     071D  1903               	skipnz
  2750     071E  0ACA               	incf	___fltol@f1+2,f
  2751     071F  1903               	skipnz
  2752     0720  0ACB               	incf	___fltol@f1+3,f
  2753     0721                     l463:
  2754     0721                     l453:
  2755     0721  0008               	return
  2756     0722                     __end_of___fltol:
  2757                           
  2758                           	psect	text14
  2759     0217                     __ptext14:	
  2760 ;; *************** function ___fldiv *****************
  2761 ;; Defined at:
  2762 ;;		line 8 in file "C:\Program Files\Microchip\xc8\v2.41\pic\sources\c90\common\sprcdiv.c"
  2763 ;; Parameters:    Size  Location     Type
  2764 ;;  a               4   14[BANK0 ] long 
  2765 ;;  b               4   18[BANK0 ] long 
  2766 ;; Auto vars:     Size  Location     Type
  2767 ;;  grs             4   34[BANK0 ] unsigned long 
  2768 ;;  rem             4   27[BANK0 ] unsigned long 
  2769 ;;  new_exp         2   32[BANK0 ] int 
  2770 ;;  aexp            1   39[BANK0 ] unsigned char 
  2771 ;;  bexp            1   38[BANK0 ] unsigned char 
  2772 ;;  sign            1   31[BANK0 ] unsigned char 
  2773 ;; Return value:  Size  Location     Type
  2774 ;;                  4   14[BANK0 ] unsigned char 
  2775 ;; Registers used:
  2776 ;;		wreg, status,2, status,0, btemp+1
  2777 ;; Tracked objects:
  2778 ;;		On entry : 0/0
  2779 ;;		On exit  : 0/0
  2780 ;;		Unchanged: 0/0
  2781 ;; Data sizes:     COMMON   BANK0   BANK1   BANK3   BANK2
  2782 ;;      Params:         0       8       0       0       0
  2783 ;;      Locals:         0      13       0       0       0
  2784 ;;      Temps:          0       5       0       0       0
  2785 ;;      Totals:         0      26       0       0       0
  2786 ;;Total ram usage:       26 bytes
  2787 ;; Hardware stack levels used: 1
  2788 ;; Hardware stack levels required when called: 1
  2789 ;; This function calls:
  2790 ;;		Nothing
  2791 ;; This function is called by:
  2792 ;;		_main
  2793 ;; This function uses a non-reentrant model
  2794 ;;
  2795                           
  2796     0217                     ___fldiv:	
  2797                           ;psect for function ___fldiv
  2798                           
  2799     0217                     l1669:	
  2800                           ;incstack = 0
  2801                           ; Regs used in ___fldiv: [wreg+status,2+status,0+btemp+1]
  2802                           
  2803     0217  1283               	bcf	3,5	;RP0=0, select bank0
  2804     0218  1303               	bcf	3,6	;RP1=0, select bank0
  2805     0219  0835               	movf	___fldiv@b+3,w
  2806     021A  3980               	andlw	128
  2807     021B  00BF               	movwf	___fldiv@sign
  2808     021C                     l1671:
  2809     021C  0835               	movf	___fldiv@b+3,w
  2810     021D  00B6               	movwf	??___fldiv
  2811     021E  0736               	addwf	??___fldiv,w
  2812     021F  00C6               	movwf	___fldiv@bexp
  2813     0220                     l1673:
  2814     0220  1FB4               	btfss	___fldiv@b+2,7
  2815     0221  2A23               	goto	u1601
  2816     0222  2A24               	goto	u1600
  2817     0223                     u1601:
  2818     0223  2A25               	goto	l1677
  2819     0224                     u1600:
  2820     0224                     l1675:
  2821     0224  1446               	bsf	___fldiv@bexp,0
  2822     0225                     l1677:
  2823     0225  0846               	movf	___fldiv@bexp,w
  2824     0226  1903               	btfsc	3,2
  2825     0227  2A29               	goto	u1611
  2826     0228  2A2A               	goto	u1610
  2827     0229                     u1611:
  2828     0229  2A3A               	goto	l1687
  2829     022A                     u1610:
  2830     022A                     l1679:
  2831     022A  0A46               	incf	___fldiv@bexp,w
  2832     022B  1D03               	btfss	3,2
  2833     022C  2A2E               	goto	u1621
  2834     022D  2A2F               	goto	u1620
  2835     022E                     u1621:
  2836     022E  2A37               	goto	l1683
  2837     022F                     u1620:
  2838     022F                     l1681:
  2839     022F  3000               	movlw	0
  2840     0230  00B5               	movwf	___fldiv@b+3
  2841     0231  3000               	movlw	0
  2842     0232  00B4               	movwf	___fldiv@b+2
  2843     0233  3000               	movlw	0
  2844     0234  00B3               	movwf	___fldiv@b+1
  2845     0235  3000               	movlw	0
  2846     0236  00B2               	movwf	___fldiv@b
  2847     0237                     l1683:
  2848     0237  17B4               	bsf	___fldiv@b+2,7
  2849     0238                     l1685:
  2850     0238  01B5               	clrf	___fldiv@b+3
  2851     0239  2A42               	goto	l1689
  2852     023A                     l1687:
  2853     023A  3000               	movlw	0
  2854     023B  00B5               	movwf	___fldiv@b+3
  2855     023C  3000               	movlw	0
  2856     023D  00B4               	movwf	___fldiv@b+2
  2857     023E  3000               	movlw	0
  2858     023F  00B3               	movwf	___fldiv@b+1
  2859     0240  3000               	movlw	0
  2860     0241  00B2               	movwf	___fldiv@b
  2861     0242                     l1689:
  2862     0242  0831               	movf	___fldiv@a+3,w
  2863     0243  3980               	andlw	128
  2864     0244  00FF               	movwf	btemp+1
  2865     0245  087F               	movf	btemp+1,w
  2866     0246  06BF               	xorwf	___fldiv@sign,f
  2867     0247                     l1691:
  2868     0247  0831               	movf	___fldiv@a+3,w
  2869     0248  00B6               	movwf	??___fldiv
  2870     0249  0736               	addwf	??___fldiv,w
  2871     024A  00C7               	movwf	___fldiv@aexp
  2872     024B                     l1693:
  2873     024B  1FB0               	btfss	___fldiv@a+2,7
  2874     024C  2A4E               	goto	u1631
  2875     024D  2A4F               	goto	u1630
  2876     024E                     u1631:
  2877     024E  2A50               	goto	l1697
  2878     024F                     u1630:
  2879     024F                     l1695:
  2880     024F  1447               	bsf	___fldiv@aexp,0
  2881     0250                     l1697:
  2882     0250  0847               	movf	___fldiv@aexp,w
  2883     0251  1903               	btfsc	3,2
  2884     0252  2A54               	goto	u1641
  2885     0253  2A55               	goto	u1640
  2886     0254                     u1641:
  2887     0254  2A65               	goto	l1707
  2888     0255                     u1640:
  2889     0255                     l1699:
  2890     0255  0A47               	incf	___fldiv@aexp,w
  2891     0256  1D03               	btfss	3,2
  2892     0257  2A59               	goto	u1651
  2893     0258  2A5A               	goto	u1650
  2894     0259                     u1651:
  2895     0259  2A62               	goto	l1703
  2896     025A                     u1650:
  2897     025A                     l1701:
  2898     025A  3000               	movlw	0
  2899     025B  00B1               	movwf	___fldiv@a+3
  2900     025C  3000               	movlw	0
  2901     025D  00B0               	movwf	___fldiv@a+2
  2902     025E  3000               	movlw	0
  2903     025F  00AF               	movwf	___fldiv@a+1
  2904     0260  3000               	movlw	0
  2905     0261  00AE               	movwf	___fldiv@a
  2906     0262                     l1703:
  2907     0262  17B0               	bsf	___fldiv@a+2,7
  2908     0263                     l1705:
  2909     0263  01B1               	clrf	___fldiv@a+3
  2910     0264  2A6D               	goto	l616
  2911     0265                     l1707:
  2912     0265  3000               	movlw	0
  2913     0266  00B1               	movwf	___fldiv@a+3
  2914     0267  3000               	movlw	0
  2915     0268  00B0               	movwf	___fldiv@a+2
  2916     0269  3000               	movlw	0
  2917     026A  00AF               	movwf	___fldiv@a+1
  2918     026B  3000               	movlw	0
  2919     026C  00AE               	movwf	___fldiv@a
  2920     026D                     l616:
  2921     026D  0831               	movf	___fldiv@a+3,w
  2922     026E  0430               	iorwf	___fldiv@a+2,w
  2923     026F  042F               	iorwf	___fldiv@a+1,w
  2924     0270  042E               	iorwf	___fldiv@a,w
  2925     0271  1D03               	skipz
  2926     0272  2A74               	goto	u1661
  2927     0273  2A75               	goto	u1660
  2928     0274                     u1661:
  2929     0274  2A8E               	goto	l1717
  2930     0275                     u1660:
  2931     0275                     l1709:
  2932     0275  3000               	movlw	0
  2933     0276  00B5               	movwf	___fldiv@b+3
  2934     0277  3000               	movlw	0
  2935     0278  00B4               	movwf	___fldiv@b+2
  2936     0279  3000               	movlw	0
  2937     027A  00B3               	movwf	___fldiv@b+1
  2938     027B  3000               	movlw	0
  2939     027C  00B2               	movwf	___fldiv@b
  2940     027D  3080               	movlw	128
  2941     027E  04B4               	iorwf	___fldiv@b+2,f
  2942     027F  307F               	movlw	127
  2943     0280  04B5               	iorwf	___fldiv@b+3,f
  2944     0281                     l1711:
  2945     0281  083F               	movf	___fldiv@sign,w
  2946     0282  00FF               	movwf	btemp+1
  2947     0283  087F               	movf	btemp+1,w
  2948     0284  04B5               	iorwf	___fldiv@b+3,f
  2949     0285                     l1713:
  2950     0285  0835               	movf	___fldiv@b+3,w
  2951     0286  00B1               	movwf	?___fldiv+3
  2952     0287  0834               	movf	___fldiv@b+2,w
  2953     0288  00B0               	movwf	?___fldiv+2
  2954     0289  0833               	movf	___fldiv@b+1,w
  2955     028A  00AF               	movwf	?___fldiv+1
  2956     028B  0832               	movf	___fldiv@b,w
  2957     028C  00AE               	movwf	?___fldiv
  2958     028D  2BE5               	goto	l618
  2959     028E                     l1717:
  2960     028E  0846               	movf	___fldiv@bexp,w
  2961     028F  1D03               	btfss	3,2
  2962     0290  2A92               	goto	u1671
  2963     0291  2A93               	goto	u1670
  2964     0292                     u1671:
  2965     0292  2A9C               	goto	l1723
  2966     0293                     u1670:
  2967     0293                     l1719:
  2968     0293  3000               	movlw	0
  2969     0294  00B1               	movwf	?___fldiv+3
  2970     0295  3000               	movlw	0
  2971     0296  00B0               	movwf	?___fldiv+2
  2972     0297  3000               	movlw	0
  2973     0298  00AF               	movwf	?___fldiv+1
  2974     0299  3000               	movlw	0
  2975     029A  00AE               	movwf	?___fldiv
  2976     029B  2BE5               	goto	l618
  2977     029C                     l1723:
  2978     029C  0846               	movf	___fldiv@bexp,w
  2979     029D  00B6               	movwf	??___fldiv
  2980     029E  01B7               	clrf	??___fldiv+1
  2981     029F  0837               	movf	??___fldiv+1,w
  2982     02A0  00B9               	movwf	??___fldiv+3
  2983     02A1  0847               	movf	___fldiv@aexp,w
  2984     02A2  0236               	subwf	??___fldiv,w
  2985     02A3  00B8               	movwf	??___fldiv+2
  2986     02A4  1C03               	skipc
  2987     02A5  03B9               	decf	??___fldiv+3,f
  2988     02A6  0838               	movf	??___fldiv+2,w
  2989     02A7  3E7F               	addlw	127
  2990     02A8  00C0               	movwf	___fldiv@new_exp
  2991     02A9  0839               	movf	??___fldiv+3,w
  2992     02AA  1803               	skipnc
  2993     02AB  3E01               	addlw	1
  2994     02AC  3E00               	addlw	0
  2995     02AD  00C1               	movwf	___fldiv@new_exp+1
  2996     02AE                     l1725:
  2997     02AE  0835               	movf	___fldiv@b+3,w
  2998     02AF  00BE               	movwf	___fldiv@rem+3
  2999     02B0  0834               	movf	___fldiv@b+2,w
  3000     02B1  00BD               	movwf	___fldiv@rem+2
  3001     02B2  0833               	movf	___fldiv@b+1,w
  3002     02B3  00BC               	movwf	___fldiv@rem+1
  3003     02B4  0832               	movf	___fldiv@b,w
  3004     02B5  00BB               	movwf	___fldiv@rem
  3005     02B6                     l1727:
  3006     02B6  3000               	movlw	0
  3007     02B7  00B5               	movwf	___fldiv@b+3
  3008     02B8  3000               	movlw	0
  3009     02B9  00B4               	movwf	___fldiv@b+2
  3010     02BA  3000               	movlw	0
  3011     02BB  00B3               	movwf	___fldiv@b+1
  3012     02BC  3000               	movlw	0
  3013     02BD  00B2               	movwf	___fldiv@b
  3014     02BE                     l1729:
  3015     02BE  3000               	movlw	0
  3016     02BF  00C5               	movwf	___fldiv@grs+3
  3017     02C0  3000               	movlw	0
  3018     02C1  00C4               	movwf	___fldiv@grs+2
  3019     02C2  3000               	movlw	0
  3020     02C3  00C3               	movwf	___fldiv@grs+1
  3021     02C4  3000               	movlw	0
  3022     02C5  00C2               	movwf	___fldiv@grs
  3023     02C6                     l1731:
  3024     02C6  01C7               	clrf	___fldiv@aexp
  3025     02C7  2B12               	goto	l1751
  3026     02C8                     l1733:
  3027     02C8  0847               	movf	___fldiv@aexp,w
  3028     02C9  1903               	btfsc	3,2
  3029     02CA  2ACC               	goto	u1681
  3030     02CB  2ACD               	goto	u1680
  3031     02CC                     u1681:
  3032     02CC  2AED               	goto	l1743
  3033     02CD                     u1680:
  3034     02CD                     l1735:
  3035     02CD  3001               	movlw	1
  3036     02CE  00B6               	movwf	??___fldiv
  3037     02CF                     u1695:
  3038     02CF  1003               	clrc
  3039     02D0  0DBB               	rlf	___fldiv@rem,f
  3040     02D1  0DBC               	rlf	___fldiv@rem+1,f
  3041     02D2  0DBD               	rlf	___fldiv@rem+2,f
  3042     02D3  0DBE               	rlf	___fldiv@rem+3,f
  3043     02D4  0BB6               	decfsz	??___fldiv,f
  3044     02D5  2ACF               	goto	u1695
  3045     02D6  3001               	movlw	1
  3046     02D7  00B6               	movwf	??___fldiv
  3047     02D8                     u1705:
  3048     02D8  1003               	clrc
  3049     02D9  0DB2               	rlf	___fldiv@b,f
  3050     02DA  0DB3               	rlf	___fldiv@b+1,f
  3051     02DB  0DB4               	rlf	___fldiv@b+2,f
  3052     02DC  0DB5               	rlf	___fldiv@b+3,f
  3053     02DD  0BB6               	decfsz	??___fldiv,f
  3054     02DE  2AD8               	goto	u1705
  3055     02DF                     l1737:
  3056     02DF  1FC5               	btfss	___fldiv@grs+3,7
  3057     02E0  2AE2               	goto	u1711
  3058     02E1  2AE3               	goto	u1710
  3059     02E2                     u1711:
  3060     02E2  2AE4               	goto	l1741
  3061     02E3                     u1710:
  3062     02E3                     l1739:
  3063     02E3  1432               	bsf	___fldiv@b,0
  3064     02E4                     l1741:
  3065     02E4  3001               	movlw	1
  3066     02E5  00B6               	movwf	??___fldiv
  3067     02E6                     u1725:
  3068     02E6  1003               	clrc
  3069     02E7  0DC2               	rlf	___fldiv@grs,f
  3070     02E8  0DC3               	rlf	___fldiv@grs+1,f
  3071     02E9  0DC4               	rlf	___fldiv@grs+2,f
  3072     02EA  0DC5               	rlf	___fldiv@grs+3,f
  3073     02EB  0BB6               	decfsz	??___fldiv,f
  3074     02EC  2AE6               	goto	u1725
  3075     02ED                     l1743:
  3076     02ED  0831               	movf	___fldiv@a+3,w
  3077     02EE  023E               	subwf	___fldiv@rem+3,w
  3078     02EF  1D03               	skipz
  3079     02F0  2AFB               	goto	u1735
  3080     02F1  0830               	movf	___fldiv@a+2,w
  3081     02F2  023D               	subwf	___fldiv@rem+2,w
  3082     02F3  1D03               	skipz
  3083     02F4  2AFB               	goto	u1735
  3084     02F5  082F               	movf	___fldiv@a+1,w
  3085     02F6  023C               	subwf	___fldiv@rem+1,w
  3086     02F7  1D03               	skipz
  3087     02F8  2AFB               	goto	u1735
  3088     02F9  082E               	movf	___fldiv@a,w
  3089     02FA  023B               	subwf	___fldiv@rem,w
  3090     02FB                     u1735:
  3091     02FB  1C03               	skipc
  3092     02FC  2AFE               	goto	u1731
  3093     02FD  2AFF               	goto	u1730
  3094     02FE                     u1731:
  3095     02FE  2B0E               	goto	l1749
  3096     02FF                     u1730:
  3097     02FF                     l1745:
  3098     02FF  1745               	bsf	___fldiv@grs+3,6
  3099     0300                     l1747:
  3100     0300  082E               	movf	___fldiv@a,w
  3101     0301  02BB               	subwf	___fldiv@rem,f
  3102     0302  082F               	movf	___fldiv@a+1,w
  3103     0303  1C03               	skipc
  3104     0304  0F2F               	incfsz	___fldiv@a+1,w
  3105     0305  02BC               	subwf	___fldiv@rem+1,f
  3106     0306  0830               	movf	___fldiv@a+2,w
  3107     0307  1C03               	skipc
  3108     0308  0F30               	incfsz	___fldiv@a+2,w
  3109     0309  02BD               	subwf	___fldiv@rem+2,f
  3110     030A  0831               	movf	___fldiv@a+3,w
  3111     030B  1C03               	skipc
  3112     030C  0F31               	incfsz	___fldiv@a+3,w
  3113     030D  02BE               	subwf	___fldiv@rem+3,f
  3114     030E                     l1749:
  3115     030E  3001               	movlw	1
  3116     030F  00FF               	movwf	btemp+1
  3117     0310  087F               	movf	btemp+1,w
  3118     0311  07C7               	addwf	___fldiv@aexp,f
  3119     0312                     l1751:
  3120     0312  301A               	movlw	26
  3121     0313  0247               	subwf	___fldiv@aexp,w
  3122     0314  1C03               	skipc
  3123     0315  2B17               	goto	u1741
  3124     0316  2B18               	goto	u1740
  3125     0317                     u1741:
  3126     0317  2AC8               	goto	l1733
  3127     0318                     u1740:
  3128     0318                     l1753:
  3129     0318  083E               	movf	___fldiv@rem+3,w
  3130     0319  043D               	iorwf	___fldiv@rem+2,w
  3131     031A  043C               	iorwf	___fldiv@rem+1,w
  3132     031B  043B               	iorwf	___fldiv@rem,w
  3133     031C  1903               	skipnz
  3134     031D  2B1F               	goto	u1751
  3135     031E  2B20               	goto	u1750
  3136     031F                     u1751:
  3137     031F  2B3F               	goto	l1767
  3138     0320                     u1750:
  3139     0320                     l1755:
  3140     0320  1442               	bsf	___fldiv@grs,0
  3141     0321  2B3F               	goto	l1767
  3142     0322                     l1757:
  3143     0322  3001               	movlw	1
  3144     0323  00B6               	movwf	??___fldiv
  3145     0324                     u1765:
  3146     0324  1003               	clrc
  3147     0325  0DB2               	rlf	___fldiv@b,f
  3148     0326  0DB3               	rlf	___fldiv@b+1,f
  3149     0327  0DB4               	rlf	___fldiv@b+2,f
  3150     0328  0DB5               	rlf	___fldiv@b+3,f
  3151     0329  0BB6               	decfsz	??___fldiv,f
  3152     032A  2B24               	goto	u1765
  3153     032B                     l1759:
  3154     032B  1FC5               	btfss	___fldiv@grs+3,7
  3155     032C  2B2E               	goto	u1771
  3156     032D  2B2F               	goto	u1770
  3157     032E                     u1771:
  3158     032E  2B30               	goto	l1763
  3159     032F                     u1770:
  3160     032F                     l1761:
  3161     032F  1432               	bsf	___fldiv@b,0
  3162     0330                     l1763:
  3163     0330  3001               	movlw	1
  3164     0331  00B6               	movwf	??___fldiv
  3165     0332                     u1785:
  3166     0332  1003               	clrc
  3167     0333  0DC2               	rlf	___fldiv@grs,f
  3168     0334  0DC3               	rlf	___fldiv@grs+1,f
  3169     0335  0DC4               	rlf	___fldiv@grs+2,f
  3170     0336  0DC5               	rlf	___fldiv@grs+3,f
  3171     0337  0BB6               	decfsz	??___fldiv,f
  3172     0338  2B32               	goto	u1785
  3173     0339                     l1765:
  3174     0339  30FF               	movlw	255
  3175     033A  07C0               	addwf	___fldiv@new_exp,f
  3176     033B  1803               	skipnc
  3177     033C  0AC1               	incf	___fldiv@new_exp+1,f
  3178     033D  30FF               	movlw	255
  3179     033E  07C1               	addwf	___fldiv@new_exp+1,f
  3180     033F                     l1767:
  3181     033F  1FB4               	btfss	___fldiv@b+2,7
  3182     0340  2B42               	goto	u1791
  3183     0341  2B43               	goto	u1790
  3184     0342                     u1791:
  3185     0342  2B22               	goto	l1757
  3186     0343                     u1790:
  3187     0343                     l1769:
  3188     0343  01C7               	clrf	___fldiv@aexp
  3189     0344                     l1771:
  3190     0344  1FC5               	btfss	___fldiv@grs+3,7
  3191     0345  2B47               	goto	u1801
  3192     0346  2B48               	goto	u1800
  3193     0347                     u1801:
  3194     0347  2B64               	goto	l1779
  3195     0348                     u1800:
  3196     0348                     l1773:
  3197     0348  30FF               	movlw	255
  3198     0349  0542               	andwf	___fldiv@grs,w
  3199     034A  00B6               	movwf	??___fldiv
  3200     034B  30FF               	movlw	255
  3201     034C  0543               	andwf	___fldiv@grs+1,w
  3202     034D  00B7               	movwf	??___fldiv+1
  3203     034E  30FF               	movlw	255
  3204     034F  0544               	andwf	___fldiv@grs+2,w
  3205     0350  00B8               	movwf	??___fldiv+2
  3206     0351  307F               	movlw	127
  3207     0352  0545               	andwf	___fldiv@grs+3,w
  3208     0353  00B9               	movwf	??___fldiv+3
  3209     0354  0839               	movf	??___fldiv+3,w
  3210     0355  0438               	iorwf	??___fldiv+2,w
  3211     0356  0437               	iorwf	??___fldiv+1,w
  3212     0357  0436               	iorwf	??___fldiv,w
  3213     0358  1903               	skipnz
  3214     0359  2B5B               	goto	u1811
  3215     035A  2B5C               	goto	u1810
  3216     035B                     u1811:
  3217     035B  2B5F               	goto	l632
  3218     035C                     u1810:
  3219     035C                     l1775:
  3220     035C  01C7               	clrf	___fldiv@aexp
  3221     035D  0AC7               	incf	___fldiv@aexp,f
  3222     035E  2B64               	goto	l1779
  3223     035F                     l632:
  3224     035F  1C32               	btfss	___fldiv@b,0
  3225     0360  2B62               	goto	u1821
  3226     0361  2B63               	goto	u1820
  3227     0362                     u1821:
  3228     0362  2B64               	goto	l1779
  3229     0363                     u1820:
  3230     0363  2B5C               	goto	l1775
  3231     0364                     l1779:
  3232     0364  0847               	movf	___fldiv@aexp,w
  3233     0365  1903               	btfsc	3,2
  3234     0366  2B68               	goto	u1831
  3235     0367  2B69               	goto	u1830
  3236     0368                     u1831:
  3237     0368  2B9A               	goto	l1789
  3238     0369                     u1830:
  3239     0369                     l1781:
  3240     0369  3001               	movlw	1
  3241     036A  07B2               	addwf	___fldiv@b,f
  3242     036B  3000               	movlw	0
  3243     036C  1803               	skipnc
  3244     036D  3001               	movlw	1
  3245     036E  07B3               	addwf	___fldiv@b+1,f
  3246     036F  3000               	movlw	0
  3247     0370  1803               	skipnc
  3248     0371  3001               	movlw	1
  3249     0372  07B4               	addwf	___fldiv@b+2,f
  3250     0373  3000               	movlw	0
  3251     0374  1803               	skipnc
  3252     0375  3001               	movlw	1
  3253     0376  07B5               	addwf	___fldiv@b+3,f
  3254     0377                     l1783:
  3255     0377  1C35               	btfss	___fldiv@b+3,0
  3256     0378  2B7A               	goto	u1841
  3257     0379  2B7B               	goto	u1840
  3258     037A                     u1841:
  3259     037A  2B9A               	goto	l1789
  3260     037B                     u1840:
  3261     037B                     l1785:
  3262     037B  0832               	movf	___fldiv@b,w
  3263     037C  00B6               	movwf	??___fldiv
  3264     037D  0833               	movf	___fldiv@b+1,w
  3265     037E  00B7               	movwf	??___fldiv+1
  3266     037F  0834               	movf	___fldiv@b+2,w
  3267     0380  00B8               	movwf	??___fldiv+2
  3268     0381  0835               	movf	___fldiv@b+3,w
  3269     0382  00B9               	movwf	??___fldiv+3
  3270     0383  3001               	movlw	1
  3271     0384  00BA               	movwf	??___fldiv+4
  3272     0385                     u1855:
  3273     0385  0D39               	rlf	??___fldiv+3,w
  3274     0386  0CB9               	rrf	??___fldiv+3,f
  3275     0387  0CB8               	rrf	??___fldiv+2,f
  3276     0388  0CB7               	rrf	??___fldiv+1,f
  3277     0389  0CB6               	rrf	??___fldiv,f
  3278     038A                     u1850:
  3279     038A  0BBA               	decfsz	??___fldiv+4,f
  3280     038B  2B85               	goto	u1855
  3281     038C  0839               	movf	??___fldiv+3,w
  3282     038D  00B5               	movwf	___fldiv@b+3
  3283     038E  0838               	movf	??___fldiv+2,w
  3284     038F  00B4               	movwf	___fldiv@b+2
  3285     0390  0837               	movf	??___fldiv+1,w
  3286     0391  00B3               	movwf	___fldiv@b+1
  3287     0392  0836               	movf	??___fldiv,w
  3288     0393  00B2               	movwf	___fldiv@b
  3289     0394                     l1787:
  3290     0394  3001               	movlw	1
  3291     0395  07C0               	addwf	___fldiv@new_exp,f
  3292     0396  1803               	skipnc
  3293     0397  0AC1               	incf	___fldiv@new_exp+1,f
  3294     0398  3000               	movlw	0
  3295     0399  07C1               	addwf	___fldiv@new_exp+1,f
  3296     039A                     l1789:
  3297     039A  0841               	movf	___fldiv@new_exp+1,w
  3298     039B  3A80               	xorlw	128
  3299     039C  00FF               	movwf	btemp+1
  3300     039D  3080               	movlw	128
  3301     039E  027F               	subwf	btemp+1,w
  3302     039F  1D03               	skipz
  3303     03A0  2BA3               	goto	u1865
  3304     03A1  30FF               	movlw	255
  3305     03A2  0240               	subwf	___fldiv@new_exp,w
  3306     03A3                     u1865:
  3307     03A3  1C03               	skipc
  3308     03A4  2BA6               	goto	u1861
  3309     03A5  2BA7               	goto	u1860
  3310     03A6                     u1861:
  3311     03A6  2BB5               	goto	l1793
  3312     03A7                     u1860:
  3313     03A7                     l1791:
  3314     03A7  30FF               	movlw	255
  3315     03A8  1283               	bcf	3,5	;RP0=0, select bank0
  3316     03A9  1303               	bcf	3,6	;RP1=0, select bank0
  3317     03AA  00C0               	movwf	___fldiv@new_exp
  3318     03AB  3000               	movlw	0
  3319     03AC  00C1               	movwf	___fldiv@new_exp+1
  3320     03AD  3000               	movlw	0
  3321     03AE  00B5               	movwf	___fldiv@b+3
  3322     03AF  3000               	movlw	0
  3323     03B0  00B4               	movwf	___fldiv@b+2
  3324     03B1  3000               	movlw	0
  3325     03B2  00B3               	movwf	___fldiv@b+1
  3326     03B3  3000               	movlw	0
  3327     03B4  00B2               	movwf	___fldiv@b
  3328     03B5                     l1793:
  3329     03B5  1283               	bcf	3,5	;RP0=0, select bank0
  3330     03B6  1303               	bcf	3,6	;RP1=0, select bank0
  3331     03B7  0841               	movf	___fldiv@new_exp+1,w
  3332     03B8  3A80               	xorlw	128
  3333     03B9  00FF               	movwf	btemp+1
  3334     03BA  3080               	movlw	128
  3335     03BB  027F               	subwf	btemp+1,w
  3336     03BC  1D03               	skipz
  3337     03BD  2BC0               	goto	u1875
  3338     03BE  3001               	movlw	1
  3339     03BF  0240               	subwf	___fldiv@new_exp,w
  3340     03C0                     u1875:
  3341     03C0  1803               	skipnc
  3342     03C1  2BC3               	goto	u1871
  3343     03C2  2BC4               	goto	u1870
  3344     03C3                     u1871:
  3345     03C3  2BD1               	goto	l638
  3346     03C4                     u1870:
  3347     03C4                     l1795:
  3348     03C4  1283               	bcf	3,5	;RP0=0, select bank0
  3349     03C5  1303               	bcf	3,6	;RP1=0, select bank0
  3350     03C6  01C0               	clrf	___fldiv@new_exp
  3351     03C7  01C1               	clrf	___fldiv@new_exp+1
  3352     03C8                     l1797:
  3353     03C8  3000               	movlw	0
  3354     03C9  00B5               	movwf	___fldiv@b+3
  3355     03CA  3000               	movlw	0
  3356     03CB  00B4               	movwf	___fldiv@b+2
  3357     03CC  3000               	movlw	0
  3358     03CD  00B3               	movwf	___fldiv@b+1
  3359     03CE  3000               	movlw	0
  3360     03CF  00B2               	movwf	___fldiv@b
  3361     03D0                     l1799:
  3362     03D0  01BF               	clrf	___fldiv@sign
  3363     03D1                     l638:
  3364     03D1  1283               	bcf	3,5	;RP0=0, select bank0
  3365     03D2  1303               	bcf	3,6	;RP1=0, select bank0
  3366     03D3  0840               	movf	___fldiv@new_exp,w
  3367     03D4  00C6               	movwf	___fldiv@bexp
  3368     03D5                     l1801:
  3369     03D5  1C46               	btfss	___fldiv@bexp,0
  3370     03D6  2BD8               	goto	u1881
  3371     03D7  2BD9               	goto	u1880
  3372     03D8                     u1881:
  3373     03D8  2BDB               	goto	l1805
  3374     03D9                     u1880:
  3375     03D9                     l1803:
  3376     03D9  17B4               	bsf	___fldiv@b+2,7
  3377     03DA  2BDF               	goto	l1807
  3378     03DB                     l1805:
  3379     03DB  307F               	movlw	127
  3380     03DC  00FF               	movwf	btemp+1
  3381     03DD  087F               	movf	btemp+1,w
  3382     03DE  05B4               	andwf	___fldiv@b+2,f
  3383     03DF                     l1807:
  3384     03DF  0846               	movf	___fldiv@bexp,w
  3385     03E0  00B6               	movwf	??___fldiv
  3386     03E1  1003               	clrc
  3387     03E2  0C36               	rrf	??___fldiv,w
  3388     03E3  00B5               	movwf	___fldiv@b+3
  3389     03E4  2A81               	goto	l1711
  3390     03E5                     l618:
  3391     03E5  0008               	return
  3392     03E6                     __end_of___fldiv:
  3393                           
  3394                           	psect	text15
  3395     0722                     __ptext15:	
  3396 ;; *************** function _ReadData_from *****************
  3397 ;; Defined at:
  3398 ;;		line 77 in file "main.c"
  3399 ;; Parameters:    Size  Location     Type
  3400 ;;  SLC             1    wreg     PTR const unsigned char 
  3401 ;;		 -> STR_5(4), STR_2(4), STR_1(4), 
  3402 ;; Auto vars:     Size  Location     Type
  3403 ;;  SLC             1    4[BANK0 ] PTR const unsigned char 
  3404 ;;		 -> STR_5(4), STR_2(4), STR_1(4), 
  3405 ;;  analog          2    2[BANK0 ] int 
  3406 ;; Return value:  Size  Location     Type
  3407 ;;                  2    0[BANK0 ] int 
  3408 ;; Registers used:
  3409 ;;		wreg
  3410 ;; Tracked objects:
  3411 ;;		On entry : 0/0
  3412 ;;		On exit  : 0/0
  3413 ;;		Unchanged: 0/0
  3414 ;; Data sizes:     COMMON   BANK0   BANK1   BANK3   BANK2
  3415 ;;      Params:         0       2       0       0       0
  3416 ;;      Locals:         0       3       0       0       0
  3417 ;;      Temps:          0       0       0       0       0
  3418 ;;      Totals:         0       5       0       0       0
  3419 ;;Total ram usage:        5 bytes
  3420 ;; Hardware stack levels used: 1
  3421 ;; Hardware stack levels required when called: 1
  3422 ;; This function calls:
  3423 ;;		Nothing
  3424 ;; This function is called by:
  3425 ;;		_main
  3426 ;; This function uses a non-reentrant model
  3427 ;;
  3428                           
  3429     0722                     _ReadData_from:	
  3430                           ;psect for function _ReadData_from
  3431                           
  3432                           
  3433                           ;incstack = 0
  3434                           ; Regs used in _ReadData_from: [wreg]
  3435                           ;ReadData_from@SLC stored from wreg
  3436     0722  1283               	bcf	3,5	;RP0=0, select bank0
  3437     0723  1303               	bcf	3,6	;RP1=0, select bank0
  3438     0724  00A4               	movwf	ReadData_from@SLC
  3439     0725                     l1595:
  3440                           
  3441                           ;main.c: 78: int analog ;;main.c: 79: if(SLC == "AN0"){
  3442     0725  0824               	movf	ReadData_from@SLC,w
  3443     0726  3A1E               	xorlw	(low ((STR_7-__stringbase)| (0+32768)))& (0+255)
  3444     0727  1D03               	skipz
  3445     0728  2F2A               	goto	u1421
  3446     0729  2F2B               	goto	u1420
  3447     072A                     u1421:
  3448     072A  2F32               	goto	l1599
  3449     072B                     u1420:
  3450     072B                     l1597:
  3451                           
  3452                           ;main.c: 80: ADCON0 = 0x45;
  3453     072B  3045               	movlw	69
  3454     072C  009F               	movwf	31	;volatile
  3455                           
  3456                           ;main.c: 81: analog = adc0;
  3457     072D  086F               	movf	_adc0+1,w
  3458     072E  00A3               	movwf	ReadData_from@analog+1
  3459     072F  086E               	movf	_adc0,w
  3460     0730  00A2               	movwf	ReadData_from@analog
  3461                           
  3462                           ;main.c: 82: }else if (SLC == "AN1") {
  3463     0731  2F8D               	goto	l92
  3464     0732                     l1599:
  3465     0732  0824               	movf	ReadData_from@SLC,w
  3466     0733  3A22               	xorlw	(low ((STR_8-__stringbase)| (0+32768)))& (0+255)
  3467     0734  1D03               	skipz
  3468     0735  2F37               	goto	u1431
  3469     0736  2F38               	goto	u1430
  3470     0737                     u1431:
  3471     0737  2F3F               	goto	l1603
  3472     0738                     u1430:
  3473     0738                     l1601:
  3474                           
  3475                           ;main.c: 83: ADCON0 = 0x4D;
  3476     0738  304D               	movlw	77
  3477     0739  009F               	movwf	31	;volatile
  3478                           
  3479                           ;main.c: 84: analog = adc1;
  3480     073A  086D               	movf	_adc1+1,w
  3481     073B  00A3               	movwf	ReadData_from@analog+1
  3482     073C  086C               	movf	_adc1,w
  3483     073D  00A2               	movwf	ReadData_from@analog
  3484                           
  3485                           ;main.c: 85: }else if (SLC == "AN2") {
  3486     073E  2F8D               	goto	l92
  3487     073F                     l1603:
  3488     073F  0824               	movf	ReadData_from@SLC,w
  3489     0740  3A26               	xorlw	(low ((STR_9-__stringbase)| (0+32768)))& (0+255)
  3490     0741  1D03               	skipz
  3491     0742  2F44               	goto	u1441
  3492     0743  2F45               	goto	u1440
  3493     0744                     u1441:
  3494     0744  2F4C               	goto	l1607
  3495     0745                     u1440:
  3496     0745                     l1605:
  3497                           
  3498                           ;main.c: 86: ADCON0 = 0x55;
  3499     0745  3055               	movlw	85
  3500     0746  009F               	movwf	31	;volatile
  3501                           
  3502                           ;main.c: 87: analog = adc2;
  3503     0747  086B               	movf	_adc2+1,w
  3504     0748  00A3               	movwf	ReadData_from@analog+1
  3505     0749  086A               	movf	_adc2,w
  3506     074A  00A2               	movwf	ReadData_from@analog
  3507                           
  3508                           ;main.c: 88: }else if (SLC == "AN3") {
  3509     074B  2F8D               	goto	l92
  3510     074C                     l1607:
  3511     074C  0824               	movf	ReadData_from@SLC,w
  3512     074D  3A2A               	xorlw	(low ((STR_10-__stringbase)| (0+32768)))& (0+255)
  3513     074E  1D03               	skipz
  3514     074F  2F51               	goto	u1451
  3515     0750  2F52               	goto	u1450
  3516     0751                     u1451:
  3517     0751  2F59               	goto	l1611
  3518     0752                     u1450:
  3519     0752                     l1609:
  3520                           
  3521                           ;main.c: 89: ADCON0 = 0x5D;
  3522     0752  305D               	movlw	93
  3523     0753  009F               	movwf	31	;volatile
  3524                           
  3525                           ;main.c: 90: analog = adc3;
  3526     0754  0869               	movf	_adc3+1,w
  3527     0755  00A3               	movwf	ReadData_from@analog+1
  3528     0756  0868               	movf	_adc3,w
  3529     0757  00A2               	movwf	ReadData_from@analog
  3530                           
  3531                           ;main.c: 91: }else if (SLC == "AN4") {
  3532     0758  2F8D               	goto	l92
  3533     0759                     l1611:
  3534     0759  0824               	movf	ReadData_from@SLC,w
  3535     075A  3A2E               	xorlw	(low ((STR_11-__stringbase)| (0+32768)))& (0+255)
  3536     075B  1D03               	skipz
  3537     075C  2F5E               	goto	u1461
  3538     075D  2F5F               	goto	u1460
  3539     075E                     u1461:
  3540     075E  2F66               	goto	l1615
  3541     075F                     u1460:
  3542     075F                     l1613:
  3543                           
  3544                           ;main.c: 92: ADCON0 = 0x65;
  3545     075F  3065               	movlw	101
  3546     0760  009F               	movwf	31	;volatile
  3547                           
  3548                           ;main.c: 93: analog = adc4;
  3549     0761  0867               	movf	_adc4+1,w
  3550     0762  00A3               	movwf	ReadData_from@analog+1
  3551     0763  0866               	movf	_adc4,w
  3552     0764  00A2               	movwf	ReadData_from@analog
  3553                           
  3554                           ;main.c: 94: }else if (SLC == "AN5") {
  3555     0765  2F8D               	goto	l92
  3556     0766                     l1615:
  3557     0766  0824               	movf	ReadData_from@SLC,w
  3558     0767  3A32               	xorlw	(low ((STR_5-__stringbase)| (0+32768)))& (0+255)
  3559     0768  1D03               	skipz
  3560     0769  2F6B               	goto	u1471
  3561     076A  2F6C               	goto	u1470
  3562     076B                     u1471:
  3563     076B  2F73               	goto	l1619
  3564     076C                     u1470:
  3565     076C                     l1617:
  3566                           
  3567                           ;main.c: 95: ADCON0 = 0x6D;
  3568     076C  306D               	movlw	109
  3569     076D  009F               	movwf	31	;volatile
  3570                           
  3571                           ;main.c: 96: analog = adc5;
  3572     076E  0865               	movf	_adc5+1,w
  3573     076F  00A3               	movwf	ReadData_from@analog+1
  3574     0770  0864               	movf	_adc5,w
  3575     0771  00A2               	movwf	ReadData_from@analog
  3576                           
  3577                           ;main.c: 97: }else if (SLC == "AN6") {
  3578     0772  2F8D               	goto	l92
  3579     0773                     l1619:
  3580     0773  0824               	movf	ReadData_from@SLC,w
  3581     0774  3A36               	xorlw	(low ((STR_1-__stringbase)| (0+32768)))& (0+255)
  3582     0775  1D03               	skipz
  3583     0776  2F78               	goto	u1481
  3584     0777  2F79               	goto	u1480
  3585     0778                     u1481:
  3586     0778  2F80               	goto	l1623
  3587     0779                     u1480:
  3588     0779                     l1621:
  3589                           
  3590                           ;main.c: 98: ADCON0 = 0x75;
  3591     0779  3075               	movlw	117
  3592     077A  009F               	movwf	31	;volatile
  3593                           
  3594                           ;main.c: 99: analog = adc6;
  3595     077B  0863               	movf	_adc6+1,w
  3596     077C  00A3               	movwf	ReadData_from@analog+1
  3597     077D  0862               	movf	_adc6,w
  3598     077E  00A2               	movwf	ReadData_from@analog
  3599                           
  3600                           ;main.c: 100: }else if (SLC == "AN7") {
  3601     077F  2F8D               	goto	l92
  3602     0780                     l1623:
  3603     0780  0824               	movf	ReadData_from@SLC,w
  3604     0781  3A3A               	xorlw	(low ((STR_2-__stringbase)| (0+32768)))& (0+255)
  3605     0782  1D03               	skipz
  3606     0783  2F85               	goto	u1491
  3607     0784  2F86               	goto	u1490
  3608     0785                     u1491:
  3609     0785  2F8D               	goto	l100
  3610     0786                     u1490:
  3611     0786                     l1625:
  3612                           
  3613                           ;main.c: 101: ADCON0 = 0x7D;
  3614     0786  307D               	movlw	125
  3615     0787  009F               	movwf	31	;volatile
  3616                           
  3617                           ;main.c: 102: analog = adc7;
  3618     0788  0861               	movf	_adc7+1,w
  3619     0789  00A3               	movwf	ReadData_from@analog+1
  3620     078A  0860               	movf	_adc7,w
  3621     078B  00A2               	movwf	ReadData_from@analog
  3622     078C  2F8D               	goto	l92
  3623     078D                     l100:
  3624     078D                     l92:
  3625                           
  3626                           ;main.c: 103: };main.c: 104: return analog ;
  3627     078D  0823               	movf	ReadData_from@analog+1,w
  3628     078E  00A1               	movwf	?_ReadData_from+1
  3629     078F  0822               	movf	ReadData_from@analog,w
  3630     0790  00A0               	movwf	?_ReadData_from
  3631     0791                     l106:
  3632     0791  0008               	return
  3633     0792                     __end_of_ReadData_from:
  3634                           
  3635                           	psect	text16
  3636     0024                     __ptext16:	
  3637 ;; *************** function _adc_conv *****************
  3638 ;; Defined at:
  3639 ;;		line 157 in file "main.c"
  3640 ;; Parameters:    Size  Location     Type
  3641 ;;		None
  3642 ;; Auto vars:     Size  Location     Type
  3643 ;;		None
  3644 ;; Return value:  Size  Location     Type
  3645 ;;                  1    wreg      void 
  3646 ;; Registers used:
  3647 ;;		wreg, status,2, status,0, btemp+1
  3648 ;; Tracked objects:
  3649 ;;		On entry : 0/0
  3650 ;;		On exit  : 0/0
  3651 ;;		Unchanged: 0/0
  3652 ;; Data sizes:     COMMON   BANK0   BANK1   BANK3   BANK2
  3653 ;;      Params:         0       0       0       0       0
  3654 ;;      Locals:         8       0       0       0       0
  3655 ;;      Temps:          5       0       0       0       0
  3656 ;;      Totals:        13       0       0       0       0
  3657 ;;Total ram usage:       13 bytes
  3658 ;; Hardware stack levels used: 1
  3659 ;; This function calls:
  3660 ;;		Nothing
  3661 ;; This function is called by:
  3662 ;;		Interrupt level 1
  3663 ;; This function uses a non-reentrant model
  3664 ;;
  3665                           
  3666     0024                     _adc_conv:	
  3667                           ;psect for function _adc_conv
  3668                           
  3669     0024                     i1l1891:
  3670                           
  3671                           ;main.c: 158: if(PIR1bits.ADIF = 1 && (ADCON0bits.CHS0 == 0 && ADCON0bits.CHS1 == 0 && A
      +                          DCON0bits.CHS2 == 0)){
  3672     0024  01F5               	clrf	_adc_conv$322
  3673     0025                     i1l1893:
  3674     0025  1283               	bcf	3,5	;RP0=0, select bank0
  3675     0026  1303               	bcf	3,6	;RP1=0, select bank0
  3676     0027  199F               	btfsc	31,3	;volatile
  3677     0028  282A               	goto	u203_21
  3678     0029  282B               	goto	u203_20
  3679     002A                     u203_21:
  3680     002A  2835               	goto	i1l1901
  3681     002B                     u203_20:
  3682     002B                     i1l1895:
  3683     002B  1A1F               	btfsc	31,4	;volatile
  3684     002C  282E               	goto	u204_21
  3685     002D  282F               	goto	u204_20
  3686     002E                     u204_21:
  3687     002E  2835               	goto	i1l1901
  3688     002F                     u204_20:
  3689     002F                     i1l1897:
  3690     002F  1A9F               	btfsc	31,5	;volatile
  3691     0030  2832               	goto	u205_21
  3692     0031  2833               	goto	u205_20
  3693     0032                     u205_21:
  3694     0032  2835               	goto	i1l1901
  3695     0033                     u205_20:
  3696     0033                     i1l1899:
  3697     0033  01F5               	clrf	_adc_conv$322
  3698     0034  0AF5               	incf	_adc_conv$322,f
  3699     0035                     i1l1901:
  3700     0035  0875               	movf	_adc_conv$322,w
  3701     0036  00F0               	movwf	??_adc_conv
  3702     0037  0EF0               	swapf	??_adc_conv,f
  3703     0038  0DF0               	rlf	??_adc_conv,f
  3704     0039  0DF0               	rlf	??_adc_conv,f
  3705     003A  080C               	movf	12,w	;volatile
  3706     003B  0670               	xorwf	??_adc_conv,w
  3707     003C  39BF               	andlw	-65
  3708     003D  0670               	xorwf	??_adc_conv,w
  3709     003E  008C               	movwf	12	;volatile
  3710     003F  0E0C               	swapf	12,w	;volatile
  3711     0040  00F1               	movwf	??_adc_conv+1
  3712     0041  0CF1               	rrf	??_adc_conv+1,f
  3713     0042  0C71               	rrf	??_adc_conv+1,w
  3714     0043  3901               	andlw	1
  3715     0044  3A00               	xorlw	0
  3716     0045  1903               	skipnz
  3717     0046  2848               	goto	u206_21
  3718     0047  2849               	goto	u206_20
  3719     0048                     u206_21:
  3720     0048  2863               	goto	i1l1909
  3721     0049                     u206_20:
  3722     0049                     i1l1903:
  3723                           
  3724                           ;main.c: 159: adc0 = (ADRESH <<8);
  3725     0049  081E               	movf	30,w	;volatile
  3726     004A  00F0               	movwf	??_adc_conv
  3727     004B  01F1               	clrf	??_adc_conv+1
  3728     004C  0870               	movf	??_adc_conv,w
  3729     004D  00F1               	movwf	??_adc_conv+1
  3730     004E  01F0               	clrf	??_adc_conv
  3731     004F  0870               	movf	??_adc_conv,w
  3732     0050  00EE               	movwf	_adc0
  3733     0051  0871               	movf	??_adc_conv+1,w
  3734     0052  00EF               	movwf	_adc0+1
  3735     0053                     i1l1905:
  3736                           
  3737                           ;main.c: 160: adc0 = adc0 + ADRESL ;
  3738     0053  1683               	bsf	3,5	;RP0=1, select bank1
  3739     0054  1303               	bcf	3,6	;RP1=0, select bank1
  3740     0055  081E               	movf	30,w	;volatile
  3741     0056  1283               	bcf	3,5	;RP0=0, select bank0
  3742     0057  1303               	bcf	3,6	;RP1=0, select bank0
  3743     0058  076E               	addwf	_adc0,w
  3744     0059  00F0               	movwf	??_adc_conv
  3745     005A  086F               	movf	_adc0+1,w
  3746     005B  1803               	skipnc
  3747     005C  0A6F               	incf	_adc0+1,w
  3748     005D  00F1               	movwf	??_adc_conv+1
  3749     005E  0870               	movf	??_adc_conv,w
  3750     005F  00EE               	movwf	_adc0
  3751     0060  0871               	movf	??_adc_conv+1,w
  3752     0061  00EF               	movwf	_adc0+1
  3753     0062                     i1l1907:
  3754                           
  3755                           ;main.c: 161: PIR1bits.ADIF = 0;
  3756     0062  130C               	bcf	12,6	;volatile
  3757     0063                     i1l1909:
  3758                           
  3759                           ;main.c: 162: };main.c: 163: if(PIR1bits.ADIF = 1 && (ADCON0bits.CHS0 ==1 && ADCON0bits.
      +                          CHS1 == 0 && ADCON0bits.CHS2 == 0)){
  3760     0063  01F6               	clrf	_adc_conv$323
  3761     0064                     i1l1911:
  3762     0064  1D9F               	btfss	31,3	;volatile
  3763     0065  2867               	goto	u207_21
  3764     0066  2868               	goto	u207_20
  3765     0067                     u207_21:
  3766     0067  2872               	goto	i1l1919
  3767     0068                     u207_20:
  3768     0068                     i1l1913:
  3769     0068  1A1F               	btfsc	31,4	;volatile
  3770     0069  286B               	goto	u208_21
  3771     006A  286C               	goto	u208_20
  3772     006B                     u208_21:
  3773     006B  2872               	goto	i1l1919
  3774     006C                     u208_20:
  3775     006C                     i1l1915:
  3776     006C  1A9F               	btfsc	31,5	;volatile
  3777     006D  286F               	goto	u209_21
  3778     006E  2870               	goto	u209_20
  3779     006F                     u209_21:
  3780     006F  2872               	goto	i1l1919
  3781     0070                     u209_20:
  3782     0070                     i1l1917:
  3783     0070  01F6               	clrf	_adc_conv$323
  3784     0071  0AF6               	incf	_adc_conv$323,f
  3785     0072                     i1l1919:
  3786     0072  0876               	movf	_adc_conv$323,w
  3787     0073  00F0               	movwf	??_adc_conv
  3788     0074  0EF0               	swapf	??_adc_conv,f
  3789     0075  0DF0               	rlf	??_adc_conv,f
  3790     0076  0DF0               	rlf	??_adc_conv,f
  3791     0077  080C               	movf	12,w	;volatile
  3792     0078  0670               	xorwf	??_adc_conv,w
  3793     0079  39BF               	andlw	-65
  3794     007A  0670               	xorwf	??_adc_conv,w
  3795     007B  008C               	movwf	12	;volatile
  3796     007C  0E0C               	swapf	12,w	;volatile
  3797     007D  00F1               	movwf	??_adc_conv+1
  3798     007E  0CF1               	rrf	??_adc_conv+1,f
  3799     007F  0C71               	rrf	??_adc_conv+1,w
  3800     0080  3901               	andlw	1
  3801     0081  3A00               	xorlw	0
  3802     0082  1903               	skipnz
  3803     0083  2885               	goto	u210_21
  3804     0084  2886               	goto	u210_20
  3805     0085                     u210_21:
  3806     0085  28A0               	goto	i1l1927
  3807     0086                     u210_20:
  3808     0086                     i1l1921:
  3809                           
  3810                           ;main.c: 164: adc1 = (ADRESH <<8);
  3811     0086  081E               	movf	30,w	;volatile
  3812     0087  00F0               	movwf	??_adc_conv
  3813     0088  01F1               	clrf	??_adc_conv+1
  3814     0089  0870               	movf	??_adc_conv,w
  3815     008A  00F1               	movwf	??_adc_conv+1
  3816     008B  01F0               	clrf	??_adc_conv
  3817     008C  0870               	movf	??_adc_conv,w
  3818     008D  00EC               	movwf	_adc1
  3819     008E  0871               	movf	??_adc_conv+1,w
  3820     008F  00ED               	movwf	_adc1+1
  3821     0090                     i1l1923:
  3822                           
  3823                           ;main.c: 165: adc1 = adc1 + ADRESL ;
  3824     0090  1683               	bsf	3,5	;RP0=1, select bank1
  3825     0091  1303               	bcf	3,6	;RP1=0, select bank1
  3826     0092  081E               	movf	30,w	;volatile
  3827     0093  1283               	bcf	3,5	;RP0=0, select bank0
  3828     0094  1303               	bcf	3,6	;RP1=0, select bank0
  3829     0095  076C               	addwf	_adc1,w
  3830     0096  00F0               	movwf	??_adc_conv
  3831     0097  086D               	movf	_adc1+1,w
  3832     0098  1803               	skipnc
  3833     0099  0A6D               	incf	_adc1+1,w
  3834     009A  00F1               	movwf	??_adc_conv+1
  3835     009B  0870               	movf	??_adc_conv,w
  3836     009C  00EC               	movwf	_adc1
  3837     009D  0871               	movf	??_adc_conv+1,w
  3838     009E  00ED               	movwf	_adc1+1
  3839     009F                     i1l1925:
  3840                           
  3841                           ;main.c: 166: PIR1bits.ADIF = 0;
  3842     009F  130C               	bcf	12,6	;volatile
  3843     00A0                     i1l1927:
  3844                           
  3845                           ;main.c: 167: };main.c: 168: if(PIR1bits.ADIF = 1 && (ADCON0bits.CHS0 ==0 && ADCON0bits.
      +                          CHS1 == 1 && ADCON0bits.CHS2 == 0)){
  3846     00A0  01F7               	clrf	_adc_conv$324
  3847     00A1                     i1l1929:
  3848     00A1  199F               	btfsc	31,3	;volatile
  3849     00A2  28A4               	goto	u211_21
  3850     00A3  28A5               	goto	u211_20
  3851     00A4                     u211_21:
  3852     00A4  28AF               	goto	i1l1937
  3853     00A5                     u211_20:
  3854     00A5                     i1l1931:
  3855     00A5  1E1F               	btfss	31,4	;volatile
  3856     00A6  28A8               	goto	u212_21
  3857     00A7  28A9               	goto	u212_20
  3858     00A8                     u212_21:
  3859     00A8  28AF               	goto	i1l1937
  3860     00A9                     u212_20:
  3861     00A9                     i1l1933:
  3862     00A9  1A9F               	btfsc	31,5	;volatile
  3863     00AA  28AC               	goto	u213_21
  3864     00AB  28AD               	goto	u213_20
  3865     00AC                     u213_21:
  3866     00AC  28AF               	goto	i1l1937
  3867     00AD                     u213_20:
  3868     00AD                     i1l1935:
  3869     00AD  01F7               	clrf	_adc_conv$324
  3870     00AE  0AF7               	incf	_adc_conv$324,f
  3871     00AF                     i1l1937:
  3872     00AF  0877               	movf	_adc_conv$324,w
  3873     00B0  00F0               	movwf	??_adc_conv
  3874     00B1  0EF0               	swapf	??_adc_conv,f
  3875     00B2  0DF0               	rlf	??_adc_conv,f
  3876     00B3  0DF0               	rlf	??_adc_conv,f
  3877     00B4  080C               	movf	12,w	;volatile
  3878     00B5  0670               	xorwf	??_adc_conv,w
  3879     00B6  39BF               	andlw	-65
  3880     00B7  0670               	xorwf	??_adc_conv,w
  3881     00B8  008C               	movwf	12	;volatile
  3882     00B9  0E0C               	swapf	12,w	;volatile
  3883     00BA  00F1               	movwf	??_adc_conv+1
  3884     00BB  0CF1               	rrf	??_adc_conv+1,f
  3885     00BC  0C71               	rrf	??_adc_conv+1,w
  3886     00BD  3901               	andlw	1
  3887     00BE  3A00               	xorlw	0
  3888     00BF  1903               	skipnz
  3889     00C0  28C2               	goto	u214_21
  3890     00C1  28C3               	goto	u214_20
  3891     00C2                     u214_21:
  3892     00C2  28DD               	goto	i1l1945
  3893     00C3                     u214_20:
  3894     00C3                     i1l1939:
  3895                           
  3896                           ;main.c: 169: adc2 = (ADRESH <<8);
  3897     00C3  081E               	movf	30,w	;volatile
  3898     00C4  00F0               	movwf	??_adc_conv
  3899     00C5  01F1               	clrf	??_adc_conv+1
  3900     00C6  0870               	movf	??_adc_conv,w
  3901     00C7  00F1               	movwf	??_adc_conv+1
  3902     00C8  01F0               	clrf	??_adc_conv
  3903     00C9  0870               	movf	??_adc_conv,w
  3904     00CA  00EA               	movwf	_adc2
  3905     00CB  0871               	movf	??_adc_conv+1,w
  3906     00CC  00EB               	movwf	_adc2+1
  3907     00CD                     i1l1941:
  3908                           
  3909                           ;main.c: 170: adc2 = adc2 + ADRESL ;
  3910     00CD  1683               	bsf	3,5	;RP0=1, select bank1
  3911     00CE  1303               	bcf	3,6	;RP1=0, select bank1
  3912     00CF  081E               	movf	30,w	;volatile
  3913     00D0  1283               	bcf	3,5	;RP0=0, select bank0
  3914     00D1  1303               	bcf	3,6	;RP1=0, select bank0
  3915     00D2  076A               	addwf	_adc2,w
  3916     00D3  00F0               	movwf	??_adc_conv
  3917     00D4  086B               	movf	_adc2+1,w
  3918     00D5  1803               	skipnc
  3919     00D6  0A6B               	incf	_adc2+1,w
  3920     00D7  00F1               	movwf	??_adc_conv+1
  3921     00D8  0870               	movf	??_adc_conv,w
  3922     00D9  00EA               	movwf	_adc2
  3923     00DA  0871               	movf	??_adc_conv+1,w
  3924     00DB  00EB               	movwf	_adc2+1
  3925     00DC                     i1l1943:
  3926                           
  3927                           ;main.c: 171: PIR1bits.ADIF = 0;
  3928     00DC  130C               	bcf	12,6	;volatile
  3929     00DD                     i1l1945:
  3930                           
  3931                           ;main.c: 172: };main.c: 173: if(PIR1bits.ADIF = 1 && (ADCON0bits.CHS0 ==1 && ADCON0bits.
      +                          CHS1 == 1 && ADCON0bits.CHS2 == 0)){
  3932     00DD  01F8               	clrf	_adc_conv$325
  3933     00DE                     i1l1947:
  3934     00DE  1D9F               	btfss	31,3	;volatile
  3935     00DF  28E1               	goto	u215_21
  3936     00E0  28E2               	goto	u215_20
  3937     00E1                     u215_21:
  3938     00E1  28EC               	goto	i1l1955
  3939     00E2                     u215_20:
  3940     00E2                     i1l1949:
  3941     00E2  1E1F               	btfss	31,4	;volatile
  3942     00E3  28E5               	goto	u216_21
  3943     00E4  28E6               	goto	u216_20
  3944     00E5                     u216_21:
  3945     00E5  28EC               	goto	i1l1955
  3946     00E6                     u216_20:
  3947     00E6                     i1l1951:
  3948     00E6  1A9F               	btfsc	31,5	;volatile
  3949     00E7  28E9               	goto	u217_21
  3950     00E8  28EA               	goto	u217_20
  3951     00E9                     u217_21:
  3952     00E9  28EC               	goto	i1l1955
  3953     00EA                     u217_20:
  3954     00EA                     i1l1953:
  3955     00EA  01F8               	clrf	_adc_conv$325
  3956     00EB  0AF8               	incf	_adc_conv$325,f
  3957     00EC                     i1l1955:
  3958     00EC  0878               	movf	_adc_conv$325,w
  3959     00ED  00F0               	movwf	??_adc_conv
  3960     00EE  0EF0               	swapf	??_adc_conv,f
  3961     00EF  0DF0               	rlf	??_adc_conv,f
  3962     00F0  0DF0               	rlf	??_adc_conv,f
  3963     00F1  080C               	movf	12,w	;volatile
  3964     00F2  0670               	xorwf	??_adc_conv,w
  3965     00F3  39BF               	andlw	-65
  3966     00F4  0670               	xorwf	??_adc_conv,w
  3967     00F5  008C               	movwf	12	;volatile
  3968     00F6  0E0C               	swapf	12,w	;volatile
  3969     00F7  00F1               	movwf	??_adc_conv+1
  3970     00F8  0CF1               	rrf	??_adc_conv+1,f
  3971     00F9  0C71               	rrf	??_adc_conv+1,w
  3972     00FA  3901               	andlw	1
  3973     00FB  3A00               	xorlw	0
  3974     00FC  1903               	skipnz
  3975     00FD  28FF               	goto	u218_21
  3976     00FE  2900               	goto	u218_20
  3977     00FF                     u218_21:
  3978     00FF  291A               	goto	i1l1963
  3979     0100                     u218_20:
  3980     0100                     i1l1957:
  3981                           
  3982                           ;main.c: 174: adc3 = (ADRESH <<8);
  3983     0100  081E               	movf	30,w	;volatile
  3984     0101  00F0               	movwf	??_adc_conv
  3985     0102  01F1               	clrf	??_adc_conv+1
  3986     0103  0870               	movf	??_adc_conv,w
  3987     0104  00F1               	movwf	??_adc_conv+1
  3988     0105  01F0               	clrf	??_adc_conv
  3989     0106  0870               	movf	??_adc_conv,w
  3990     0107  00E8               	movwf	_adc3
  3991     0108  0871               	movf	??_adc_conv+1,w
  3992     0109  00E9               	movwf	_adc3+1
  3993     010A                     i1l1959:
  3994                           
  3995                           ;main.c: 175: adc3 = adc3 + ADRESL ;
  3996     010A  1683               	bsf	3,5	;RP0=1, select bank1
  3997     010B  1303               	bcf	3,6	;RP1=0, select bank1
  3998     010C  081E               	movf	30,w	;volatile
  3999     010D  1283               	bcf	3,5	;RP0=0, select bank0
  4000     010E  1303               	bcf	3,6	;RP1=0, select bank0
  4001     010F  0768               	addwf	_adc3,w
  4002     0110  00F0               	movwf	??_adc_conv
  4003     0111  0869               	movf	_adc3+1,w
  4004     0112  1803               	skipnc
  4005     0113  0A69               	incf	_adc3+1,w
  4006     0114  00F1               	movwf	??_adc_conv+1
  4007     0115  0870               	movf	??_adc_conv,w
  4008     0116  00E8               	movwf	_adc3
  4009     0117  0871               	movf	??_adc_conv+1,w
  4010     0118  00E9               	movwf	_adc3+1
  4011     0119                     i1l1961:
  4012                           
  4013                           ;main.c: 176: PIR1bits.ADIF = 0;
  4014     0119  130C               	bcf	12,6	;volatile
  4015     011A                     i1l1963:
  4016                           
  4017                           ;main.c: 177: };main.c: 178: if(PIR1bits.ADIF = 1 && (ADCON0bits.CHS0 ==0 && ADCON0bits.
      +                          CHS1 == 0 && ADCON0bits.CHS2 == 1)){
  4018     011A  01F9               	clrf	_adc_conv$326
  4019     011B                     i1l1965:
  4020     011B  199F               	btfsc	31,3	;volatile
  4021     011C  291E               	goto	u219_21
  4022     011D  291F               	goto	u219_20
  4023     011E                     u219_21:
  4024     011E  2929               	goto	i1l1973
  4025     011F                     u219_20:
  4026     011F                     i1l1967:
  4027     011F  1A1F               	btfsc	31,4	;volatile
  4028     0120  2922               	goto	u220_21
  4029     0121  2923               	goto	u220_20
  4030     0122                     u220_21:
  4031     0122  2929               	goto	i1l1973
  4032     0123                     u220_20:
  4033     0123                     i1l1969:
  4034     0123  1E9F               	btfss	31,5	;volatile
  4035     0124  2926               	goto	u221_21
  4036     0125  2927               	goto	u221_20
  4037     0126                     u221_21:
  4038     0126  2929               	goto	i1l1973
  4039     0127                     u221_20:
  4040     0127                     i1l1971:
  4041     0127  01F9               	clrf	_adc_conv$326
  4042     0128  0AF9               	incf	_adc_conv$326,f
  4043     0129                     i1l1973:
  4044     0129  0879               	movf	_adc_conv$326,w
  4045     012A  00F0               	movwf	??_adc_conv
  4046     012B  0EF0               	swapf	??_adc_conv,f
  4047     012C  0DF0               	rlf	??_adc_conv,f
  4048     012D  0DF0               	rlf	??_adc_conv,f
  4049     012E  080C               	movf	12,w	;volatile
  4050     012F  0670               	xorwf	??_adc_conv,w
  4051     0130  39BF               	andlw	-65
  4052     0131  0670               	xorwf	??_adc_conv,w
  4053     0132  008C               	movwf	12	;volatile
  4054     0133  0E0C               	swapf	12,w	;volatile
  4055     0134  00F1               	movwf	??_adc_conv+1
  4056     0135  0CF1               	rrf	??_adc_conv+1,f
  4057     0136  0C71               	rrf	??_adc_conv+1,w
  4058     0137  3901               	andlw	1
  4059     0138  3A00               	xorlw	0
  4060     0139  1903               	skipnz
  4061     013A  293C               	goto	u222_21
  4062     013B  293D               	goto	u222_20
  4063     013C                     u222_21:
  4064     013C  2957               	goto	i1l1981
  4065     013D                     u222_20:
  4066     013D                     i1l1975:
  4067                           
  4068                           ;main.c: 179: adc4 = (ADRESH <<8);
  4069     013D  081E               	movf	30,w	;volatile
  4070     013E  00F0               	movwf	??_adc_conv
  4071     013F  01F1               	clrf	??_adc_conv+1
  4072     0140  0870               	movf	??_adc_conv,w
  4073     0141  00F1               	movwf	??_adc_conv+1
  4074     0142  01F0               	clrf	??_adc_conv
  4075     0143  0870               	movf	??_adc_conv,w
  4076     0144  00E6               	movwf	_adc4
  4077     0145  0871               	movf	??_adc_conv+1,w
  4078     0146  00E7               	movwf	_adc4+1
  4079     0147                     i1l1977:
  4080                           
  4081                           ;main.c: 180: adc4 = adc4 + ADRESL ;
  4082     0147  1683               	bsf	3,5	;RP0=1, select bank1
  4083     0148  1303               	bcf	3,6	;RP1=0, select bank1
  4084     0149  081E               	movf	30,w	;volatile
  4085     014A  1283               	bcf	3,5	;RP0=0, select bank0
  4086     014B  1303               	bcf	3,6	;RP1=0, select bank0
  4087     014C  0766               	addwf	_adc4,w
  4088     014D  00F0               	movwf	??_adc_conv
  4089     014E  0867               	movf	_adc4+1,w
  4090     014F  1803               	skipnc
  4091     0150  0A67               	incf	_adc4+1,w
  4092     0151  00F1               	movwf	??_adc_conv+1
  4093     0152  0870               	movf	??_adc_conv,w
  4094     0153  00E6               	movwf	_adc4
  4095     0154  0871               	movf	??_adc_conv+1,w
  4096     0155  00E7               	movwf	_adc4+1
  4097     0156                     i1l1979:
  4098                           
  4099                           ;main.c: 181: PIR1bits.ADIF = 0;
  4100     0156  130C               	bcf	12,6	;volatile
  4101     0157                     i1l1981:
  4102                           
  4103                           ;main.c: 182: };main.c: 183: if(PIR1bits.ADIF = 1 && (ADCON0bits.CHS0 ==1 && ADCON0bits.
      +                          CHS1 == 0 && ADCON0bits.CHS2 == 1)){
  4104     0157  01FA               	clrf	_adc_conv$327
  4105     0158                     i1l1983:
  4106     0158  1D9F               	btfss	31,3	;volatile
  4107     0159  295B               	goto	u223_21
  4108     015A  295C               	goto	u223_20
  4109     015B                     u223_21:
  4110     015B  2966               	goto	i1l1991
  4111     015C                     u223_20:
  4112     015C                     i1l1985:
  4113     015C  1A1F               	btfsc	31,4	;volatile
  4114     015D  295F               	goto	u224_21
  4115     015E  2960               	goto	u224_20
  4116     015F                     u224_21:
  4117     015F  2966               	goto	i1l1991
  4118     0160                     u224_20:
  4119     0160                     i1l1987:
  4120     0160  1E9F               	btfss	31,5	;volatile
  4121     0161  2963               	goto	u225_21
  4122     0162  2964               	goto	u225_20
  4123     0163                     u225_21:
  4124     0163  2966               	goto	i1l1991
  4125     0164                     u225_20:
  4126     0164                     i1l1989:
  4127     0164  01FA               	clrf	_adc_conv$327
  4128     0165  0AFA               	incf	_adc_conv$327,f
  4129     0166                     i1l1991:
  4130     0166  087A               	movf	_adc_conv$327,w
  4131     0167  00F0               	movwf	??_adc_conv
  4132     0168  0EF0               	swapf	??_adc_conv,f
  4133     0169  0DF0               	rlf	??_adc_conv,f
  4134     016A  0DF0               	rlf	??_adc_conv,f
  4135     016B  080C               	movf	12,w	;volatile
  4136     016C  0670               	xorwf	??_adc_conv,w
  4137     016D  39BF               	andlw	-65
  4138     016E  0670               	xorwf	??_adc_conv,w
  4139     016F  008C               	movwf	12	;volatile
  4140     0170  0E0C               	swapf	12,w	;volatile
  4141     0171  00F1               	movwf	??_adc_conv+1
  4142     0172  0CF1               	rrf	??_adc_conv+1,f
  4143     0173  0C71               	rrf	??_adc_conv+1,w
  4144     0174  3901               	andlw	1
  4145     0175  3A00               	xorlw	0
  4146     0176  1903               	skipnz
  4147     0177  2979               	goto	u226_21
  4148     0178  297A               	goto	u226_20
  4149     0179                     u226_21:
  4150     0179  2994               	goto	i1l1999
  4151     017A                     u226_20:
  4152     017A                     i1l1993:
  4153                           
  4154                           ;main.c: 184: adc5 = (ADRESH <<8);
  4155     017A  081E               	movf	30,w	;volatile
  4156     017B  00F0               	movwf	??_adc_conv
  4157     017C  01F1               	clrf	??_adc_conv+1
  4158     017D  0870               	movf	??_adc_conv,w
  4159     017E  00F1               	movwf	??_adc_conv+1
  4160     017F  01F0               	clrf	??_adc_conv
  4161     0180  0870               	movf	??_adc_conv,w
  4162     0181  00E4               	movwf	_adc5
  4163     0182  0871               	movf	??_adc_conv+1,w
  4164     0183  00E5               	movwf	_adc5+1
  4165     0184                     i1l1995:
  4166                           
  4167                           ;main.c: 185: adc5 = adc5 + ADRESL ;
  4168     0184  1683               	bsf	3,5	;RP0=1, select bank1
  4169     0185  1303               	bcf	3,6	;RP1=0, select bank1
  4170     0186  081E               	movf	30,w	;volatile
  4171     0187  1283               	bcf	3,5	;RP0=0, select bank0
  4172     0188  1303               	bcf	3,6	;RP1=0, select bank0
  4173     0189  0764               	addwf	_adc5,w
  4174     018A  00F0               	movwf	??_adc_conv
  4175     018B  0865               	movf	_adc5+1,w
  4176     018C  1803               	skipnc
  4177     018D  0A65               	incf	_adc5+1,w
  4178     018E  00F1               	movwf	??_adc_conv+1
  4179     018F  0870               	movf	??_adc_conv,w
  4180     0190  00E4               	movwf	_adc5
  4181     0191  0871               	movf	??_adc_conv+1,w
  4182     0192  00E5               	movwf	_adc5+1
  4183     0193                     i1l1997:
  4184                           
  4185                           ;main.c: 186: PIR1bits.ADIF = 0;
  4186     0193  130C               	bcf	12,6	;volatile
  4187     0194                     i1l1999:
  4188                           
  4189                           ;main.c: 187: };main.c: 188: if(PIR1bits.ADIF = 1 && (ADCON0bits.CHS0 ==0 && ADCON0bits.
      +                          CHS1 == 1 && ADCON0bits.CHS2 == 1)){
  4190     0194  01FB               	clrf	_adc_conv$328
  4191     0195                     i1l2001:
  4192     0195  199F               	btfsc	31,3	;volatile
  4193     0196  2998               	goto	u227_21
  4194     0197  2999               	goto	u227_20
  4195     0198                     u227_21:
  4196     0198  29A3               	goto	i1l2009
  4197     0199                     u227_20:
  4198     0199                     i1l2003:
  4199     0199  1E1F               	btfss	31,4	;volatile
  4200     019A  299C               	goto	u228_21
  4201     019B  299D               	goto	u228_20
  4202     019C                     u228_21:
  4203     019C  29A3               	goto	i1l2009
  4204     019D                     u228_20:
  4205     019D                     i1l2005:
  4206     019D  1E9F               	btfss	31,5	;volatile
  4207     019E  29A0               	goto	u229_21
  4208     019F  29A1               	goto	u229_20
  4209     01A0                     u229_21:
  4210     01A0  29A3               	goto	i1l2009
  4211     01A1                     u229_20:
  4212     01A1                     i1l2007:
  4213     01A1  01FB               	clrf	_adc_conv$328
  4214     01A2  0AFB               	incf	_adc_conv$328,f
  4215     01A3                     i1l2009:
  4216     01A3  087B               	movf	_adc_conv$328,w
  4217     01A4  00F0               	movwf	??_adc_conv
  4218     01A5  0EF0               	swapf	??_adc_conv,f
  4219     01A6  0DF0               	rlf	??_adc_conv,f
  4220     01A7  0DF0               	rlf	??_adc_conv,f
  4221     01A8  080C               	movf	12,w	;volatile
  4222     01A9  0670               	xorwf	??_adc_conv,w
  4223     01AA  39BF               	andlw	-65
  4224     01AB  0670               	xorwf	??_adc_conv,w
  4225     01AC  008C               	movwf	12	;volatile
  4226     01AD  0E0C               	swapf	12,w	;volatile
  4227     01AE  00F1               	movwf	??_adc_conv+1
  4228     01AF  0CF1               	rrf	??_adc_conv+1,f
  4229     01B0  0C71               	rrf	??_adc_conv+1,w
  4230     01B1  3901               	andlw	1
  4231     01B2  3A00               	xorlw	0
  4232     01B3  1903               	skipnz
  4233     01B4  29B6               	goto	u230_21
  4234     01B5  29B7               	goto	u230_20
  4235     01B6                     u230_21:
  4236     01B6  29D1               	goto	i1l2017
  4237     01B7                     u230_20:
  4238     01B7                     i1l2011:
  4239                           
  4240                           ;main.c: 189: adc6 = (ADRESH <<8);
  4241     01B7  081E               	movf	30,w	;volatile
  4242     01B8  00F0               	movwf	??_adc_conv
  4243     01B9  01F1               	clrf	??_adc_conv+1
  4244     01BA  0870               	movf	??_adc_conv,w
  4245     01BB  00F1               	movwf	??_adc_conv+1
  4246     01BC  01F0               	clrf	??_adc_conv
  4247     01BD  0870               	movf	??_adc_conv,w
  4248     01BE  00E2               	movwf	_adc6
  4249     01BF  0871               	movf	??_adc_conv+1,w
  4250     01C0  00E3               	movwf	_adc6+1
  4251     01C1                     i1l2013:
  4252                           
  4253                           ;main.c: 190: adc6 = adc6 + ADRESL ;
  4254     01C1  1683               	bsf	3,5	;RP0=1, select bank1
  4255     01C2  1303               	bcf	3,6	;RP1=0, select bank1
  4256     01C3  081E               	movf	30,w	;volatile
  4257     01C4  1283               	bcf	3,5	;RP0=0, select bank0
  4258     01C5  1303               	bcf	3,6	;RP1=0, select bank0
  4259     01C6  0762               	addwf	_adc6,w
  4260     01C7  00F0               	movwf	??_adc_conv
  4261     01C8  0863               	movf	_adc6+1,w
  4262     01C9  1803               	skipnc
  4263     01CA  0A63               	incf	_adc6+1,w
  4264     01CB  00F1               	movwf	??_adc_conv+1
  4265     01CC  0870               	movf	??_adc_conv,w
  4266     01CD  00E2               	movwf	_adc6
  4267     01CE  0871               	movf	??_adc_conv+1,w
  4268     01CF  00E3               	movwf	_adc6+1
  4269     01D0                     i1l2015:
  4270                           
  4271                           ;main.c: 191: PIR1bits.ADIF = 0;
  4272     01D0  130C               	bcf	12,6	;volatile
  4273     01D1                     i1l2017:
  4274                           
  4275                           ;main.c: 192: };main.c: 193: if(PIR1bits.ADIF = 1 && (ADCON0bits.CHS0 ==1 && ADCON0bits.
      +                          CHS1 == 1 && ADCON0bits.CHS2 == 1)){
  4276     01D1  01FC               	clrf	_adc_conv$329
  4277     01D2                     i1l2019:
  4278     01D2  1D9F               	btfss	31,3	;volatile
  4279     01D3  29D5               	goto	u231_21
  4280     01D4  29D6               	goto	u231_20
  4281     01D5                     u231_21:
  4282     01D5  29E0               	goto	i1l2027
  4283     01D6                     u231_20:
  4284     01D6                     i1l2021:
  4285     01D6  1E1F               	btfss	31,4	;volatile
  4286     01D7  29D9               	goto	u232_21
  4287     01D8  29DA               	goto	u232_20
  4288     01D9                     u232_21:
  4289     01D9  29E0               	goto	i1l2027
  4290     01DA                     u232_20:
  4291     01DA                     i1l2023:
  4292     01DA  1E9F               	btfss	31,5	;volatile
  4293     01DB  29DD               	goto	u233_21
  4294     01DC  29DE               	goto	u233_20
  4295     01DD                     u233_21:
  4296     01DD  29E0               	goto	i1l2027
  4297     01DE                     u233_20:
  4298     01DE                     i1l2025:
  4299     01DE  01FC               	clrf	_adc_conv$329
  4300     01DF  0AFC               	incf	_adc_conv$329,f
  4301     01E0                     i1l2027:
  4302     01E0  087C               	movf	_adc_conv$329,w
  4303     01E1  00F0               	movwf	??_adc_conv
  4304     01E2  0EF0               	swapf	??_adc_conv,f
  4305     01E3  0DF0               	rlf	??_adc_conv,f
  4306     01E4  0DF0               	rlf	??_adc_conv,f
  4307     01E5  080C               	movf	12,w	;volatile
  4308     01E6  0670               	xorwf	??_adc_conv,w
  4309     01E7  39BF               	andlw	-65
  4310     01E8  0670               	xorwf	??_adc_conv,w
  4311     01E9  008C               	movwf	12	;volatile
  4312     01EA  0E0C               	swapf	12,w	;volatile
  4313     01EB  00F1               	movwf	??_adc_conv+1
  4314     01EC  0CF1               	rrf	??_adc_conv+1,f
  4315     01ED  0C71               	rrf	??_adc_conv+1,w
  4316     01EE  3901               	andlw	1
  4317     01EF  3A00               	xorlw	0
  4318     01F0  1903               	skipnz
  4319     01F1  29F3               	goto	u234_21
  4320     01F2  29F4               	goto	u234_20
  4321     01F3                     u234_21:
  4322     01F3  2A0E               	goto	i1l153
  4323     01F4                     u234_20:
  4324     01F4                     i1l2029:
  4325                           
  4326                           ;main.c: 194: adc7 = (ADRESH <<8);
  4327     01F4  081E               	movf	30,w	;volatile
  4328     01F5  00F0               	movwf	??_adc_conv
  4329     01F6  01F1               	clrf	??_adc_conv+1
  4330     01F7  0870               	movf	??_adc_conv,w
  4331     01F8  00F1               	movwf	??_adc_conv+1
  4332     01F9  01F0               	clrf	??_adc_conv
  4333     01FA  0870               	movf	??_adc_conv,w
  4334     01FB  00E0               	movwf	_adc7
  4335     01FC  0871               	movf	??_adc_conv+1,w
  4336     01FD  00E1               	movwf	_adc7+1
  4337     01FE                     i1l2031:
  4338                           
  4339                           ;main.c: 195: adc7 = adc7 + ADRESL ;
  4340     01FE  1683               	bsf	3,5	;RP0=1, select bank1
  4341     01FF  1303               	bcf	3,6	;RP1=0, select bank1
  4342     0200  081E               	movf	30,w	;volatile
  4343     0201  1283               	bcf	3,5	;RP0=0, select bank0
  4344     0202  1303               	bcf	3,6	;RP1=0, select bank0
  4345     0203  0760               	addwf	_adc7,w
  4346     0204  00F0               	movwf	??_adc_conv
  4347     0205  0861               	movf	_adc7+1,w
  4348     0206  1803               	skipnc
  4349     0207  0A61               	incf	_adc7+1,w
  4350     0208  00F1               	movwf	??_adc_conv+1
  4351     0209  0870               	movf	??_adc_conv,w
  4352     020A  00E0               	movwf	_adc7
  4353     020B  0871               	movf	??_adc_conv+1,w
  4354     020C  00E1               	movwf	_adc7+1
  4355     020D                     i1l2033:
  4356                           
  4357                           ;main.c: 196: PIR1bits.ADIF = 0;
  4358     020D  130C               	bcf	12,6	;volatile
  4359     020E                     i1l153:
  4360     020E  0874               	movf	??_adc_conv+4,w
  4361     020F  00FF               	movwf	btemp+1
  4362     0210  0873               	movf	??_adc_conv+3,w
  4363     0211  008A               	movwf	10
  4364     0212  0E72               	swapf	??_adc_conv+2,w
  4365     0213  0083               	movwf	3
  4366     0214  0EFE               	swapf	btemp,f
  4367     0215  0E7E               	swapf	btemp,w
  4368     0216  0009               	retfie
  4369     0217                     __end_of_adc_conv:
  4370     007E                     btemp	set	126	;btemp
  4371     007E                     wtemp0	set	126
  4372                           
  4373                           	psect	intentry
  4374     0004                     __pintentry:	
  4375                           ;incstack = 0
  4376                           ; Regs used in _adc_conv: [wreg+status,2+status,0+btemp+1]
  4377                           
  4378     0004                     interrupt_function:
  4379     007E                     saved_w	set	btemp
  4380     0004  00FE               	movwf	btemp
  4381     0005  0E03               	swapf	3,w
  4382     0006  00F2               	movwf	??_adc_conv+2
  4383     0007  080A               	movf	10,w
  4384     0008  00F3               	movwf	??_adc_conv+3
  4385     0009  087F               	movf	btemp+1,w
  4386     000A  00F4               	movwf	??_adc_conv+4
  4387     000B  120A  118A  2824   	ljmp	_adc_conv
  4388                           
  4389                           	psect	idloc
  4390                           
  4391                           ;Config register IDLOC0 @ 0x2000
  4392                           ;	unspecified, using default values
  4393     2000                     	org	8192
  4394     2000  3FFF               	dw	16383
  4395                           
  4396                           ;Config register IDLOC1 @ 0x2001
  4397                           ;	unspecified, using default values
  4398     2001                     	org	8193
  4399     2001  3FFF               	dw	16383
  4400                           
  4401                           ;Config register IDLOC2 @ 0x2002
  4402                           ;	unspecified, using default values
  4403     2002                     	org	8194
  4404     2002  3FFF               	dw	16383
  4405                           
  4406                           ;Config register IDLOC3 @ 0x2003
  4407                           ;	unspecified, using default values
  4408     2003                     	org	8195
  4409     2003  3FFF               	dw	16383
  4410                           
  4411                           	psect	config
  4412                           
  4413                           ;Config register CONFIG @ 0x2007
  4414                           ;	Oscillator Selection bits
  4415                           ;	FOSC = EXTRC, RC oscillator
  4416                           ;	Watchdog Timer Enable bit
  4417                           ;	WDTE = OFF, WDT disabled
  4418                           ;	Power-up Timer Enable bit
  4419                           ;	PWRTE = OFF, PWRT disabled
  4420                           ;	Brown-out Reset Enable bit
  4421                           ;	BOREN = ON, BOR enabled
  4422                           ;	Low-Voltage (Single-Supply) In-Circuit Serial Programming Enable bit
  4423                           ;	LVP = ON, RB3/PGM pin has PGM function; low-voltage programming enabled
  4424                           ;	Data EEPROM Memory Code Protection bit
  4425                           ;	CPD = OFF, Data EEPROM code protection off
  4426                           ;	Flash Program Memory Write Enable bits
  4427                           ;	WRT = OFF, Write protection off; all program memory may be written to by EECON control
  4428                           ;	In-Circuit Debugger Mode bit
  4429                           ;	DEBUG = 0x1, unprogrammed default
  4430                           ;	Flash Program Memory Code Protection bit
  4431                           ;	CP = OFF, Code protection off
  4432     2007                     	org	8199
  4433     2007  3FFB               	dw	16379

Data Sizes:
    Strings     54
    Constant    10
    Data        0
    BSS         28
    Persistent  0
    Stack       0

Auto Spaces:
    Space          Size  Autos    Used
    COMMON           14     13      13
    BANK0            80     56      80
    BANK1            80      0       4
    BANK3            96      0       0
    BANK2            96      0       0

Pointer List with Targets:

    strlen@s	PTR const unsigned char  size(2) Largest target is 10
		 -> lcd_number@strNb(BANK0[10]), STR_6(CODE[6]), STR_4(CODE[7]), STR_3(CODE[6]), 

    strlen@cp	PTR const unsigned char  size(2) Largest target is 10
		 -> lcd_number@strNb(BANK0[10]), STR_6(CODE[6]), STR_4(CODE[7]), STR_3(CODE[6]), 

    sprintf@f	PTR const unsigned char  size(1) Largest target is 3
		 -> STR_15(CODE[3]), 

    sprintf@sp	PTR unsigned char  size(1) Largest target is 10
		 -> lcd_number@strNb(BANK0[10]), 

    sprintf@ap	PTR void [1] size(1) Largest target is 2
		 -> ?_sprintf(BANK0[2]), 

    lcd_caracter@str	PTR const unsigned char  size(2) Largest target is 10
		 -> lcd_number@strNb(BANK0[10]), STR_6(CODE[6]), STR_4(CODE[7]), STR_3(CODE[6]), 

    ReadData_from@SLC	PTR const unsigned char  size(1) Largest target is 4
		 -> STR_5(CODE[4]), STR_2(CODE[4]), STR_1(CODE[4]), 


Critical Paths under _main in COMMON

    None.

Critical Paths under _adc_conv in COMMON

    None.

Critical Paths under _main in BANK0

    _main->___fltol
    _lcd_number->_sprintf
    _sprintf->___lwmod
    ___lwmod->___lwdiv
    _lcd_caracter->_strlen
    _lcd_init->_lcd_cmd
    ___fltol->___fldiv
    ___fldiv->___xxtofl

Critical Paths under _adc_conv in BANK0

    None.

Critical Paths under _main in BANK1

    None.

Critical Paths under _adc_conv in BANK1

    None.

Critical Paths under _main in BANK3

    None.

Critical Paths under _adc_conv in BANK3

    None.

Critical Paths under _main in BANK2

    None.

Critical Paths under _adc_conv in BANK2

    None.

Call Graph Tables:

 ---------------------------------------------------------------------------------
 (Depth) Function   	        Calls       Base Space   Used Autos Params    Refs
 ---------------------------------------------------------------------------------
 (0) _main                                                10    10      0    5884
                                             50 BANK0      6     6      0
                      _ReadData_from
                            ___fldiv
                            ___fltol
                           ___xxtofl
                            _int_ADC
                           _int_Port
                       _lcd_caracter
                            _lcd_cmd
                           _lcd_init
                         _lcd_number
 ---------------------------------------------------------------------------------
 (1) _lcd_number                                          12    10      2    2142
                                             25 BANK0     12    10      2
                       _lcd_caracter
                            _sprintf
 ---------------------------------------------------------------------------------
 (2) _sprintf                                             21    18      3    1211
                                             12 BANK0     13    10      3
                            ___lwdiv
                            ___lwmod
 ---------------------------------------------------------------------------------
 (3) ___lwmod                                              5     1      4     311
                                              7 BANK0      5     1      4
                            ___lwdiv (ARG)
 ---------------------------------------------------------------------------------
 (3) ___lwdiv                                              7     3      4     314
                                              0 BANK0      7     3      4
 ---------------------------------------------------------------------------------
 (2) _lcd_caracter                                         4     2      2     627
                                              4 BANK0      4     2      2
                           _lcd_data
                             _strlen
 ---------------------------------------------------------------------------------
 (4) _strlen                                               4     2      2     166
                                              0 BANK0      4     2      2
 ---------------------------------------------------------------------------------
 (3) _lcd_data                                             3     3      0      44
                                              0 BANK0      3     3      0
 ---------------------------------------------------------------------------------
 (1) _lcd_init                                             0     0      0      44
                            _lcd_cmd
 ---------------------------------------------------------------------------------
 (2) _lcd_cmd                                              3     3      0      44
                                              0 BANK0      3     3      0
 ---------------------------------------------------------------------------------
 (1) _int_Port                                             0     0      0       0
 ---------------------------------------------------------------------------------
 (1) _int_ADC                                              0     0      0       0
 ---------------------------------------------------------------------------------
 (1) ___xxtofl                                            14    10      4     550
                                              0 BANK0     14    10      4
 ---------------------------------------------------------------------------------
 (1) ___fltol                                             10     6      4     457
                                             40 BANK0     10     6      4
                            ___fldiv (ARG)
                           ___xxtofl (ARG)
 ---------------------------------------------------------------------------------
 (1) ___fldiv                                             26    18      8    1577
                                             14 BANK0     26    18      8
                           ___xxtofl (ARG)
 ---------------------------------------------------------------------------------
 (1) _ReadData_from                                        5     3      2     305
                                              0 BANK0      5     3      2
 ---------------------------------------------------------------------------------
 Estimated maximum stack depth 4
 ---------------------------------------------------------------------------------
 (Depth) Function   	        Calls       Base Space   Used Autos Params    Refs
 ---------------------------------------------------------------------------------
 (5) _adc_conv                                            13    13      0     192
                                              0 COMMON    13    13      0
 ---------------------------------------------------------------------------------
 Estimated maximum stack depth 5
 ---------------------------------------------------------------------------------

 Call Graph Graphs:

 _main (ROOT)
   _ReadData_from
   ___fldiv
     ___xxtofl (ARG)
   ___fltol
     ___fldiv (ARG)
     ___xxtofl (ARG)
   ___xxtofl
   _int_ADC
   _int_Port
   _lcd_caracter
     _lcd_data
     _strlen
   _lcd_cmd
   _lcd_init
     _lcd_cmd
   _lcd_number
     _lcd_caracter
     _sprintf
       ___lwdiv
       ___lwmod
         ___lwdiv (ARG)

 _adc_conv (ROOT)

 Address spaces:
Name               Size   Autos  Total    Cost      Usage
BITCOMMON            E      0       0       0        0.0%
EEDATA             100      0       0       0        0.0%
NULL                 0      0       0       0        0.0%
CODE                 0      0       0       0        0.0%
COMMON               E      D       D       1       92.9%
BITSFR0              0      0       0       1        0.0%
SFR0                 0      0       0       1        0.0%
BITSFR1              0      0       0       2        0.0%
SFR1                 0      0       0       2        0.0%
STACK                0      0       0       2        0.0%
ABS                  0      0      61       3        0.0%
BITBANK0            50      0       0       4        0.0%
BITSFR3              0      0       0       4        0.0%
SFR3                 0      0       0       4        0.0%
BANK0               50     38      50       5      100.0%
BITSFR2              0      0       0       5        0.0%
SFR2                 0      0       0       5        0.0%
BITBANK1            50      0       0       6        0.0%
BANK1               50      0       4       7        5.0%
BITBANK3            60      0       0       8        0.0%
BANK3               60      0       0       9        0.0%
BITBANK2            60      0       0      10        0.0%
BANK2               60      0       0      11        0.0%
DATA                 0      0      61      12        0.0%


Microchip Technology PIC Macro Assembler V2.41 build 20230208172133 
Symbol Table                                                                                   Sun Jun 04 23:10:43 2023

           ___fldiv@aexp 0047             ___fldiv@bexp 0046                        pc 0002  
           lcd_data@data 0022             ___fldiv@sign 003F                       _L1 005C  
                     _L2 00A2                       _R1 005E                       _R2 0058  
                     l92 078D                       l85 0E8F                       l88 0EA5  
                     fsr 0004                      l100 078D                      l112 0F7D  
                    l121 0F17                      l106 0791                      l115 0EC4  
                    l124 07FB                      l109 0F4A                      l263 05EF  
                    l460 070C                      l700 0614                      l453 0721  
                    l702 06A9                      l463 0721                      l632 035F  
                    l616 026D                      l713 0673                      l721 0EE8  
                    l618 03E5                      l714 067F                      l539 0FFF  
                    l549 0FB9                      l638 03D1            lcd_caracter@i 0027  
                    _in1 005A                      _in2 00A0                      fsr0 0004  
                    indf 0000           ??_lcd_caracter 0026             ___fltol@exp1 0051  
    ReadData_from@analog 0022                     l1411 0F52                     l1501 0F2E  
                   l1421 0F6D                     l1413 0F53                     l1511 0F47  
                   l1503 0F3A                     l1423 0F6E                     l1415 0F54  
                   l1407 0F4E                     l1431 0EC5                     l1601 0738  
                   l1505 0F3B                     l1425 0F6F                     l1417 0F5E  
                   l1409 0F51                     l1433 0ECC                     l1521 0F11  
                   l1513 0EE9                     l1441 0FBA                     l1611 0759  
                   l1603 073F                     l1507 0F3C                     l1427 0F70  
                   l1419 0F61                     l1435 0ED2                     l1515 0EF8  
                   l1451 0FD2                     l1443 0FBE                     l1531 0532  
                   l1523 051F                     l1621 0779                     l1613 075F  
                   l1605 0745                     l1701 025A                     l1509 0F3D  
                   l1429 0F7A                     l1437 0EE0                     l1517 0EFA  
                   l1461 0FF5                     l1453 0FD6                     l1445 0FC4  
                   l1541 0554                     l1525 0522                     l1623 0780  
                   l1615 0766                     l1607 074C                     l1711 0281  
                   l1703 0262                     l1631 06AA                     l1519 0F0B  
                   l1455 0FE7                     l1447 0FC7                     l1463 0FFB  
                   l1471 0F89                     l1543 0558                     l1535 0533  
                   l1527 0528                     l1625 0786                     l1617 076C  
                   l1609 0752                     l1801 03D5                     l1713 0285  
                   l1705 0263                     l1641 06D2                     l1633 06B5  
                   l1457 0FED                     l1449 0FCE                     l1481 0FA8  
                   l1473 0F90                     l1561 0589                     l1553 0563  
                   l1545 055C                     l1537 0548                     l1529 052D  
                   l1619 0773                     l1803 03D9                     l1731 02C6  
                   l1723 029C                     l1707 0265                     l1643 06DA  
                   l1491 0F1E                     l1459 0FEE                     l1483 0FAF  
                   l1475 0F94                     l1467 0F7E                     l1571 05C9  
                   l1563 058F                     l1547 0561                     l1539 0550  
                   l1805 03DB                     l1741 02E4                     l1733 02C8  
                   l1725 02AE                     l1709 0275                     l1717 028E  
                   l1653 06E8                     l1645 06DC                     l1637 06BE  
                   l1821 060C                     l1493 0F1F                     l1477 0F98  
                   l1469 0F86                     l1485 0FB5                     l1573 05CE  
                   l1565 0594                     l1557 057F                     l1629 07E2  
                   l1807 03DF                     l1735 02CD                     l1743 02ED  
                   l1751 0312                     l1727 02B6                     l1719 0293  
                   l1671 021C                     l1663 0701                     l1655 06F1  
                   l1647 06E0                     l1639 06D1                     l1831 062C  
                   l1823 061C                     l1815 05F3                     l1591 0E9D  
                   l1583 0E88                     l1495 0F20                     l1479 0FA2  
                   l1575 05D2                     l1567 0598                     l1559 0583  
                   l1761 032F                     l1753 0318                     l1745 02FF  
                   l1737 02DF                     l1729 02BE                     l1681 022F  
                   l1673 0220                     l1665 0711                     l1657 06FA  
                   l1841 0657                     l1833 0635                     l1817 05F8  
                   l1585 0E8B                     l1497 0F21                     l1489 0F1B  
                   l1593 0EA6                     l1569 059B                     l1577 05DB  
                   l1595 0725                     l1771 0344                     l1763 0330  
                   l1755 0320                     l1747 0300                     l1739 02E3  
                   l1691 0247                     l1683 0237                     l1675 0224  
                   l1667 0716                     l1851 0681                     l1843 065E  
                   l1835 063C                     l1827 0625                     l1819 05FC  
                   l1587 0E8D                     l1499 0F2B                     l1579 05EB  
                   l1597 072B                     l1781 0369                     l1773 0348  
                   l1765 0339                     l1757 0322                     l1749 030E  
                   l1693 024B                     l1685 0238                     l1677 0225  
                   l1669 0217                     l1853 0697                     l1845 0669  
                   l1837 0640                     l1829 0628                     l1589 0E98  
                   l1599 0732                     l1791 03A7                     l1783 0377  
                   l1775 035C                     l1759 032B                     l1767 033F  
                   l1695 024F                     l1679 022A                     l1687 023A  
                   l1855 069C                     l1847 066D                     l1839 064E  
                   l1871 0448                     l1863 03E6                     l1793 03B5  
                   l1785 037B                     l1769 0343                     l1697 0250  
                   l1689 0242                     l1857 06A0                     l1849 0677  
                   l1881 04B5                     l1873 0489                     l1865 03F5  
                   l1795 03C4                     l1787 0394                     l1779 0364  
                   l1699 0255                     l1859 06A1                     l1883 04C1  
                   l1875 0494                     l1867 0401                     l1797 03C8  
                   l1789 039A                     l1885 04FC                     l1877 049F  
                   l1869 043C                     l1799 03D0                     l1887 0502  
                   l1879 04AA                     l1889 050D                     STR_1 07D7  
                   STR_2 07DB                     STR_3 07B3                     STR_4 07AC  
                   STR_5 07D3                     STR_6 07B9                     STR_7 07BF  
                   STR_8 07C3                     STR_9 07C7                     u2000 068C  
                   u1200 0FC4                     u1201 0FC3                     u2010 069C  
                   u2011 069B                     u2020 06A0                     u1220 0FD6  
                   u1300 0FA2                     u2021 069F                     u2005 0687  
                   u1221 0FD5                     u1301 0FA1                     u1215 0FC8  
                   u1240 0FE7                     u1320 0FB5                     u1400 05DB  
                   u1241 0FE6                     u1321 0FB4                     u1305 0F9E  
                   u1401 05DA                     u1410 05EB                     u1235 0FD7  
                   u1315 0FA9                     u1411 05EA                     u1420 072B  
                   u1500 06B5                     u1340 0F17                     u1260 0FFB  
                   u1421 072A                     u1501 06B4                     u1341 0F16  
                   u1261 0FFA                     u1245 0FE3                     u1430 0738  
                   u1510 06CC                     u1190 0EE0                     u1270 0F86  
                   u1350 0528                     u1431 0737                     u1335 0F31  
                   u1191 0EDF                     u1255 0FEF                     u1271 0F85  
                   u1351 0527                     u1440 0745                     u1600 0224  
                   u1520 06E0                     u1360 0558                     u1441 0744  
                   u1601 0223                     u1521 06DF                     u1185 0F64  
                   u1361 0557                     u1450 0752                     u1610 022A  
                   u1530 06E7                     u1290 0F98                     u1370 057E  
                   u1451 0751                     u1611 0229                     u1531 06E6  
                   u1515 06C7                     u1291 0F97                     u1371 057D  
                   u1460 075F                     u1620 022F                     u1380 0589  
                   u1461 075E                     u1621 022E                     u1285 0F8A  
                   u1381 0588                     u1470 076C                     u1710 02E3  
                   u1630 024F                     u1550 06F9                     u1390 058F  
                   u1471 076B                     u1711 02E2                     u1631 024E  
                   u1551 06F8                     u1391 058E                     u1375 057A  
                   u1480 0779                     u1800 0348                     u1640 0255  
                   u1560 0700                     u1481 0778                     u1801 0347  
                   u1705 02D8                     u1641 0254                     u1561 06FF  
                   u1545 06E9                     u1490 0786                     u1810 035C  
                   u1730 02FF                     u1650 025A                     u1491 0785  
                   u1811 035B                     u1731 02FE                     u1651 0259  
                   u1820 0363                     u1740 0318                     u1660 0275  
                   u1580 0711                     u1900 05FC                     u1821 0362  
                   u1741 0317                     u1725 02E6                     u1661 0274  
                   u1581 0710                     u1901 05FB                     u2357 0F5A  
                   u1830 0369                     u1750 0320                     u1670 0293  
                   u1590 0716                     u1910 061C            _ReadData_from 0722  
                   u1831 0368                     u1751 031F                     u1735 02FB  
                   u1671 0292                     u1591 0715                     u1575 0703  
                   u1911 061B                     u2367 0F76                     u1840 037B  
                   u1680 02CD                     u1841 037A                     u1681 02CC  
                   u2377 0F27                     u1850 038A                     u1770 032F  
                   u1930 063B                     u1771 032E                     u1931 063A  
                   u2387 0F43                     u1860 03A7                     u1861 03A6  
                   u1765 0324                     u1925 062D                     u1870 03C4  
                   u1790 0343                     u1950 065D                     u1871 03C3  
                   u1855 0385                     u1791 0342                     u1695 02CF  
                   u1951 065C                     u1880 03D9                     u1881 03D8  
                   u1865 03A3                     u1785 0332                     u1945 064F  
                   u1970 066D                     u1890 05F8                     u1875 03C0  
                   u1971 066C                     u1891 05F7                     u1980 0673  
                   u1981 0672                     u1965 0662                     u1990 0677  
                   u1991 0676                     _adc0 006E                     _adc1 006C  
                   _adc2 006A                     _adc3 0068                     _adc4 0066  
                   _adc5 0064                     _adc6 0062                     _adc7 0060  
                   _main 03E6                     btemp 007E                     start 000E  
        ___fldiv@new_exp 0040             _adc_conv$322 0075             _adc_conv$323 0076  
           _adc_conv$324 0077             _adc_conv$325 0078             _adc_conv$326 0079  
           _adc_conv$327 007A             _adc_conv$328 007B             _adc_conv$329 007C  
          ___fltol@sign1 0050                    ?_main 0070          __end_of___fldiv 03E6  
                  STR_10 07CB                    STR_11 07CF                    STR_12 07D3  
                  STR_13 07D7                    STR_14 07DB                    STR_15 07DF  
        __end_of___fltol 0722          __end_of___lwdiv 1000                    i1l153 020E  
        __end_of___lwmod 0FBA                    _PORTB 0006                    _TRISA 0085  
                  _TRISB 0086                    _TRISE 0089             lcd_number@nb 0039  
        lcd_caracter@num 0026          lcd_caracter@str 0024          __end_of_lcd_cmd 0F4B  
        __end_of_int_ADC 0EA6          __end_of_dpowers 07AC           ?_ReadData_from 0020  
                  pclath 000A                    status 0003                    wtemp0 007E  
        __end_of_sprintf 05F0          __initialization 0011             __end_of_main 051C  
                 ??_main 0052                   _ADCON0 001F                   _ADCON1 009F  
                 _ADRESH 001E                   _ADRESL 009E         __end_of_adc_conv 0217  
                 i1l2001 0195                   i1l2011 01B7                   i1l2003 0199  
                 i1l2021 01D6                   i1l2013 01C1                   i1l2005 019D  
                 i1l2031 01FE                   i1l2023 01DA                   i1l2015 01D0  
                 i1l2007 01A1                   i1l2033 020D                   i1l2025 01DE  
                 i1l2017 01D1                   i1l2009 01A3                   i1l2027 01E0  
                 i1l2019 01D2                   i1l2029 01F4                   i1l1901 0035  
                 i1l1911 0064                   i1l1903 0049                   u210_20 0086  
                 i1l1921 0086                   u210_21 0085                   i1l1913 0068  
                 i1l1905 0053                   i1l1931 00A5                   i1l1923 0090  
                 i1l1915 006C                   i1l1907 0062                   i1l1941 00CD  
                 i1l1933 00A9                   i1l1925 009F                   i1l1917 0070  
                 i1l1909 0063                   i1l1951 00E6                   i1l1943 00DC  
                 i1l1935 00AD                   i1l1927 00A0                   i1l1919 0072  
                 u211_20 00A5                   u203_20 002B                   i1l1961 0119  
                 i1l1953 00EA                   i1l1945 00DD                   i1l1937 00AF  
                 u211_21 00A4                   i1l1929 00A1                   u203_21 002A  
                 i1l1971 0127                   i1l1963 011A                   i1l1955 00EC  
                 i1l1947 00DE                   i1l1939 00C3                   i1l1891 0024  
                 i1l1981 0157                   i1l1973 0129                   i1l1965 011B  
                 i1l1957 0100                   i1l1949 00E2                   i1l1893 0025  
                 i1l1991 0166                   i1l1983 0158                   i1l1975 013D  
                 i1l1967 011F                   i1l1959 010A                   i1l1895 002B  
                 u220_20 0123                   u212_20 00A9                   u204_20 002F  
                 i1l1993 017A                   i1l1985 015C                   i1l1977 0147  
                 i1l1969 0123                   u220_21 0122                   u212_21 00A8  
                 i1l1897 002F                   u204_21 002E                   i1l1995 0184  
                 i1l1987 0160                   i1l1979 0156                   i1l1899 0033  
                 i1l1997 0193                   i1l1989 0164                   i1l1999 0194  
                 u221_20 0127                   u213_20 00AD                   u205_20 0033  
                 u221_21 0126                   u213_21 00AC                   u205_21 0032  
                 u230_20 01B7                   u222_20 013D                   u214_20 00C3  
                 u206_20 0049                   u230_21 01B6                   u222_21 013C  
                 u214_21 00C2                   u206_21 0048                   u231_20 01D6  
                 u223_20 015C                   u215_20 00E2                   u207_20 0068  
                 u231_21 01D5                   u223_21 015B                   u215_21 00E1  
                 u207_21 0067                   u232_20 01DA                   u224_20 0160  
                 u216_20 00E6                   u208_20 006C                   u232_21 01D9  
                 u224_21 015F                   u216_21 00E5                   u208_21 006B  
                 u233_20 01DE                   u225_20 0164                   u217_20 00EA  
                 u209_20 0070                   u233_21 01DD                   u225_21 0163  
                 u217_21 00E9                   u209_21 006F                   u234_20 01F4  
                 u226_20 017A                   u218_20 0100                   u234_21 01F3  
                 u226_21 0179                   u218_21 00FF                   u227_20 0199  
                 u219_20 011F                   u227_21 0198                   u219_21 011E  
                 u228_20 019D                   u228_21 019C                   u229_20 01A1  
                 u229_21 01A0         __end_of___xxtofl 06AA         __end_of_lcd_data 0F7E  
       __end_of_lcd_init 0EC5     __end_of_lcd_caracter 0F18                ??___fldiv 0036  
              ??___fltol 004C                ??___lwdiv 0024                ??___lwmod 002B  
       __end_of_int_Port 0E90                ??_lcd_cmd 0020                   _strlen 0EC5  
              ??_int_ADC 0020                   saved_w 007E          ??_ReadData_from 0022  
              ??_sprintf 002F             ___xxtofl@arg 002A             ___xxtofl@exp 0029  
           ___xxtofl@val 0020  __end_of__initialization 0020               ___fltol@f1 0048  
         __pcstackCOMMON 0070               __pbssBANK0 0058               __pbssBANK1 00A0  
             __pmaintext 03E6               __pintentry 0004                ?_adc_conv 0070  
                ?_strlen 0020                ?___xxtofl 0020               _lcd_number 07E2  
              ?_lcd_data 0070                ?_lcd_init 0070               __stringtab 0792  
              ?_int_Port 0070                  ___fldiv 0217                  ___fltol 06AA  
                ___lwdiv 0FBA                  ___lwmod 0F7E               ??_adc_conv 0070  
                __ptext1 07E2                  __ptext2 051C                  __ptext3 0F7E  
                __ptext4 0FBA                  __ptext5 0EE9                  __ptext6 0EC5  
                __ptext7 0F4B                  __ptext8 0EA6                  __ptext9 0F18  
                _lcd_cmd 0F18                  _int_ADC 0E98                  _dpowers 07A2  
             ??___xxtofl 0024             _lcd_caracter 0EE9               ??_lcd_data 0020  
                _sprintf 051C                  clrloop0 0E91               ??_lcd_init 0023  
   end_of_initialization 0020               ??_int_Port 0020                  strlen@s 0020  
              _PORTBbits 0006            ___xxtofl@sign 0028               lcd_cmd@cmd 0022  
            ?_lcd_number 0039              ___fldiv@grs 0042              ___fldiv@rem 003B  
         __end_of_strlen 0EE9      start_initialization 0011    __end_of_ReadData_from 0792  
               ??_strlen 0022                ___fldiv@a 002E                ___fldiv@b 0032  
              ___latbits 0002            __pcstackBANK0 0020              sprintf@flag 0033  
            sprintf@prec 0034         ___lwdiv@dividend 0022                 ?___fldiv 002E  
               ?___fltol 0048                 ?___lwdiv 0020                 ?___lwmod 0027  
              __pstrings 0792                 ?_lcd_cmd 0070                 ?_int_ADC 0070  
       ___lwdiv@quotient 0024                 ?_sprintf 002C        interrupt_function 0004  
              clear_ram0 0E90                 _PIE1bits 008C                 _PIR1bits 000C  
             _ADCON0bits 001F              __stringbase 07A1          lcd_number@strNb 003B  
              main@temp0 0052                main@temp1 0054                main@temp2 0056  
           ??_lcd_number 003B       __end_of_lcd_number 07FC                 _adc_conv 0024  
     __end_of__stringtab 07A2               sprintf@val 0035                 ___xxtofl 05F0  
        ___lwdiv@divisor 0020          ___lwdiv@counter 0026                 __ptext10 0E88  
               __ptext11 0E98                 __ptext12 05F0                 __ptext13 06AA  
               __ptext14 0217                 __ptext15 0722                 __ptext16 0024  
               _lcd_data 0F4B                 _lcd_init 0EA6                 _int_Port 0E88  
       ReadData_from@SLC 0024               _INTCONbits 000B                 intlevel1 0000  
              sprintf@ap 0032                sprintf@sp 0037         ___lwmod@dividend 0029  
              stringcode 079C                 sprintf@c 0038                 sprintf@f 002C  
        ___lwmod@divisor 0027                 strlen@cp 0022          ___lwmod@counter 002B  
               stringdir 079C                 stringtab 0792            ?_lcd_caracter 0024  
